(lp0
S'http://www.cars.com/for-sale/searchresults.action?feedSegId=28705&photoId=46724&sf2Nm=price&requestorTrackingInfo=RTB_SEARCH&yrId=20196&yrId=20135&yrId=20195&yrId=20194&yrId=20192&yrId=20139&yrId=20138&yrId=20137&yrId=20191&yrId=20141&yrId=20140&sf1Nm=actualPhotoCount&sf2Dir=DESC&PMmt=1-1-0&zc=92612&rd=99999&mdId=21249&mkId=20012&sf1Dir=DESC&searchSource=UTILITY&crSrtFlds=feedSegId-mkId-mdId&pgId=2102&rpp=250'
p1
aS'http://www.cars.com/for-sale/searchresults.action?PMmt=1-0-0&crSrtFlds=stkTypId-feedSegId-mkId&feedSegId=28705&isDealerGrouping=false&rpp=250&sf1Dir=DESC&sf1Nm=price&sf2Dir=ASC&sf2Nm=miles&zc=92612&rd=99999&stkTypId=28881&mkId=20071&photoId=46724&searchSource=GN_REFINEMENT'
p2
aS'http://www.cars.com/for-sale/searchresults.action?feedSegId=28705&rpp=50&photoId=46724&sf2Nm=price&requestorTrackingInfo=RTB_SEARCH&sf1Nm=actualPhotoCount&sf2Dir=DESC&PMmt=1-1-0&zc=92612&rd=99999&mdId=20758&mkId=20028&sf1Dir=DESC&searchSource=GN_BREADCRUMB&crSrtFlds=feedSegId-mkId-mdId&pgId=2102'
p3
aS'http://www.cars.com/for-sale/searchresults.action?PMmt=1-1-0&crSrtFlds=feedSegId-mkId-mdId&feedSegId=28705&isDealerGrouping=false&rpp=50&sf1Dir=DESC&sf1Nm=price&sf2Dir=ASC&sf2Nm=location&zc=92612&rd=99999&mkId=20028&mdId=21906&bsId=20203&yrId=20188&yrId=20133&yrId=20189&yrId=20190&yrId=20135&yrId=20191&yrId=20136&yrId=20138&yrId=20194&yrId=20139&yrId=20195&yrId=20188&searchSource=GN_REFINEMENT'
p4
aS'http://www.cars.com/for-sale/searchresults.action?feedSegId=28705&rpp=100&requestorTrackingInfo=RTB_SEARCH&yrId=20145&yrId=34923&yrId=27381&yrId=20201&PMmt=1-1-0&zc=92612&rd=99999&mdId=21930&mkId=20028&searchSource=SORT_BLENDED&crSrtFlds=feedSegId-mkId-mdId&pgId=2102&sf1Nm=actualPhotoCount&sf1Dir=DESC&sf2Nm=price&sf2Dir=DESC'
p5
a.