(lp0
S'http://www.cars.com/for-sale/searchresults.action?feedSegId=28705&sf2Nm=price&requestorTrackingInfo=RTB_SEARCH&sf1Nm=actualPhotoCount&sf2Dir=DESC&PMmt=1-1-0&zc=92612&rd=99999&mdId=21920&mkId=20044&sf1Dir=DESC&searchSource=UTILITY&crSrtFlds=feedSegId-mkId-mdId&pgId=2102&rpp=50'
p1
aS'http://www.cars.com/for-sale/searchresults.action?feedSegId=28705&rpp=50&requestorTrackingInfo=RTB_SEARCH&stkTypId=28880&PMmt=1-1-0&zc=92612&rd=99999&mdId=22380&mkId=20044&searchSource=SORT_NEW&crSrtFlds=stkTypId-feedSegId-mkId-mdId&pgId=2102&sf1Nm=actualPhotoCount&sf1Dir=DESC&sf2Nm=price&sf2Dir=DESC'
p2
aS'http://www.cars.com/for-sale/searchresults.action?PMmt=1-1-0&crSrtFlds=feedSegId-mkId-mdId&feedSegId=28705&isDealerGrouping=false&rpp=50&sf1Dir=DESC&sf1Nm=actualPhotoCount&sf2Dir=DESC&sf2Nm=price&zc=92612&rd=99999&mkId=20012&mdId=20807&yrId=58487&yrId=56007&yrId=58487&searchSource=GN_REFINEMENT'
p3
aS'http://www.cars.com/for-sale/searchresults.action?stkTyp=U&tracktype=usedcc&mkId=20069&AmbMkId=20069&AmbMkNm=Lamborghini&make=Lamborghini&AmbMdId=20994&AmbMdNm=Diablo&model=Diablo&mdId=20994&rd=99999&zc=92612&searchSource=QUICK_FORM'
p4
aS'http://www.cars.com/for-sale/searchresults.action?PMmt=1-1-0&crSrtFlds=stkTypId-feedSegId-mkId-mdId&feedSegId=28705&isDealerGrouping=false&rpp=50&sf1Dir=DESC&sf1Nm=actualPhotoCount&sf2Dir=DESC&sf2Nm=price&zc=92612&rd=99999&stkTypId=28881&mkId=20069&mdId=21195&yrId=51683&yrId=47272&yrId=39723&yrId=51683&searchSource=GN_REFINEMENT'
p5
a.