(lp0
S'http://www.cars.com/for-sale/searchresults.action?feedSegId=28705&rpp=100&photoId=46724&sf2Nm=miles&requestorTrackingInfo=RTB_SEARCH&sf1Nm=price&sf2Dir=ASC&stkTypId=28881&PMmt=1-2-0&zc=92612&rd=100000&bsId=20211&mdId=21236&mdId=21279&mkId=20019&sf1Dir=DESC&searchSource=UTILITY&crSrtFlds=stkTypId-feedSegId-mkId&pgId=2102&rn=100'
p1
aS'http://www.cars.com/for-sale/searchresults.action?feedSegId=28705&rpp=100&photoId=46724&sf2Nm=miles&requestorTrackingInfo=RTB_SEARCH&sf1Nm=price&sf2Dir=ASC&stkTypId=28881&PMmt=1-2-0&zc=92612&rd=100000&bsId=20211&mdId=21236&mdId=21279&mkId=20019&sf1Dir=DESC&searchSource=UTILITY&crSrtFlds=stkTypId-feedSegId-mkId&pgId=2102&rn=200'
p2
a.