(lp0
S'http://www.cars.com/for-sale/searchresults.action?feedSegId=28705&rpp=250&requestorTrackingInfo=RTB_SEARCH&stkTypId=28881&PMmt=1-1-0&zc=92612&rd=99999&mdId=21824&mkId=20028&searchSource=SORT_USED&crSrtFlds=stkTypId-feedSegId-mkId-mdId&pgId=2102&sf1Nm=actualPhotoCount&sf1Dir=DESC&sf2Nm=price&sf2Dir=DESC'
p1
aS'http://www.cars.com/for-sale/searchresults.action?feedSegId=28705&sf2Nm=miles&requestorTrackingInfo=RTB_SEARCH&sf1Nm=price&sf2Dir=ASC&stkTypId=28881&PMmt=1-13-0&zc=92612&rd=99999&mdId=20480&mdId=20492&mdId=51283&mdId=20489&mdId=20491&mdId=20490&mdId=22262&mdId=20501&mdId=20466&mdId=20446&mdId=20508&mdId=21117&mdId=20505&mkId=20014&sf1Dir=DESC&searchSource=UTILITY&crSrtFlds=stkTypId-feedSegId-mkId&pgId=2102&rpp=250'
p2
aS'http://www.cars.com/for-sale/searchresults.action?feedSegId=28705&rpp=50&requestorTrackingInfo=RTB_SEARCH&stkTypId=28881&PMmt=1-1-0&zc=92612&rd=99999&mdId=21794&mkId=20073&searchSource=SORT_USED&crSrtFlds=stkTypId-feedSegId-mkId-mdId&pgId=2102&sf1Nm=modelYear&sf1Dir=DESC&sf2Nm=price&sf2Dir=DESC'
p3
aS'http://www.cars.com/for-sale/searchresults.action?PMmt=1-1-0&crSrtFlds=feedSegId-mkId-mdId&feedSegId=28705&isDealerGrouping=false&rpp=250&sf1Dir=DESC&sf1Nm=price&sf2Dir=ASC&sf2Nm=miles&zc=92612&rd=99999&mkId=41703&mdId=41704&photoId=46724&searchSource=GN_REFINEMENT'
p4
aS'http://www.cars.com/for-sale/searchresults.action?PMmt=1-1-0&crSrtFlds=stkTypId-feedSegId-mkId-mdId&feedSegId=28705&isDealerGrouping=false&rpp=250&sf1Dir=DESC&sf1Nm=price&sf2Dir=ASC&sf2Nm=miles&zc=92612&rd=99999&stkTypId=28881&mkId=20028&mdId=20756&yrId=20201&yrId=20145&yrId=20200&yrId=20144&yrId=20199&yrId=20143&yrId=20198&yrId=20142&yrId=20197&yrId=20141&yrId=20196&yrId=20140&yrId=20201&photoId=46724&searchSource=GN_REFINEMENT'
p5
a.