(lp0
S'http://www.cars.com/for-sale/searchresults.action?feedSegId=28705&sf2Nm=price&requestorTrackingInfo=RTB_SEARCH&sf1Nm=actualPhotoCount&sf2Dir=DESC&PMmt=1-1-0&zc=92612&rd=100000&mdId=48263&mkId=20005&sf1Dir=DESC&searchSource=UTILITY&crSrtFlds=feedSegId-mkId-mdId&pgId=2102&rpp=100'
p1
aS'http://www.cars.com/for-sale/searchresults.action?feedSegId=28705&sf2Nm=price&requestorTrackingInfo=RTB_SEARCH&yrId=34923&yrId=39723&sf1Nm=actualPhotoCount&sf2Dir=DESC&stkTypId=28881&PMmt=1-1-0&zc=92612&rd=200&mdId=20800&mkId=20088&sf1Dir=DESC&searchSource=UTILITY&crSrtFlds=stkTypId-feedSegId-mkId-mdId&pgId=2102&rpp=100'
p2
aS'http://www.cars.com/for-sale/searchresults.action?feedSegId=28705&sf2Nm=price&requestorTrackingInfo=RTB_SEARCH&yrId=56007&sf1Nm=actualPhotoCount&sf2Dir=DESC&stkTypId=28881&PMmt=1-1-0&zc=92612&rd=200&mdId=20800&mkId=20088&sf1Dir=DESC&searchSource=UTILITY&crSrtFlds=stkTypId-feedSegId-mkId-mdId&pgId=2102&rpp=100'
p3
aS'http://www.cars.com/for-sale/searchresults.action?feedSegId=28705&sf2Nm=price&requestorTrackingInfo=RTB_SEARCH&yrId=58487&sf1Nm=actualPhotoCount&sf2Dir=DESC&PMmt=1-1-0&zc=92612&rd=200&mdId=20823&mkId=20017&sf1Dir=DESC&searchSource=UTILITY&crSrtFlds=feedSegId-mkId-mdId&pgId=2102&rpp=100'
p4
aS'http://www.cars.com/for-sale/searchresults.action?feedSegId=28705&sf2Nm=price&requestorTrackingInfo=RTB_SEARCH&sf1Nm=actualPhotoCount&sf2Dir=DESC&stkTypId=28880&PMmt=1-1-0&zc=92612&rd=200&bsId=20211&mdId=21053&mkId=20064&sf1Dir=DESC&searchSource=UTILITY&crSrtFlds=stkTypId-feedSegId-mkId-mdId&pgId=2102&rpp=100'
p5
aS'http://www.cars.com/for-sale/searchresults.action?feedSegId=28705&rpp=50&requestorTrackingInfo=RTB_SEARCH&PMmt=1-1-0&zc=92612&rd=100000&mdId=57790&mkId=20028&searchSource=SORT_BLENDED&crSrtFlds=feedSegId-mkId-mdId&pgId=2102&sf1Nm=actualPhotoCount&sf1Dir=DESC&sf2Nm=price&sf2Dir=DESC'
p6
aS'http://www.cars.com/for-sale/searchresults.action?feedSegId=28705&rpp=100&sf2Nm=price&requestorTrackingInfo=RTB_SEARCH&yrId=58487&sf1Nm=actualPhotoCount&sf2Dir=DESC&PMmt=1-1-0&zc=92612&rd=100000&mdId=22302&mkId=20064&sf1Dir=DESC&searchSource=GN_BREADCRUMB&crSrtFlds=feedSegId-mkId-mdId&pgId=2102'
p7
aS'http://www.cars.com/for-sale/searchresults.action?PMmt=1-1-0&crSrtFlds=feedSegId-mkId-mdId&feedSegId=28705&isDealerGrouping=false&rpp=100&sf1Dir=DESC&sf1Nm=actualPhotoCount&sf2Dir=DESC&sf2Nm=price&zc=92612&rd=100000&mkId=20064&mdId=22302&yrId=51683&searchSource=GN_REFINEMENT'
p8
a.