(lp0
S'http://www.cars.com/for-sale/searchresults.action?PMmt=1-0-0&crSrtFlds=stkTypId-feedSegId&feedSegId=28705&isDealerGrouping=false&rpp=250&sf1Dir=ASC&sf1Nm=price&sf2Dir=ASC&sf2Nm=miles&zc=92612&rd=100000&stkTypId=28881&mkId=20066&photoId=46724&mdId=22308&searchSource=GN_REFINEMENT'
p1
aS'http://www.cars.com/for-sale/searchresults.action?feedSegId=28705&rpp=250&photoId=46724&sf2Nm=miles&requestorTrackingInfo=RTB_SEARCH&sf1Nm=price&sf2Dir=ASC&stkTypId=28881&PMmt=1-1-0&zc=92612&rd=100000&mdId=22308&mkId=20066&sf1Dir=ASC&searchSource=UTILITY&crSrtFlds=stkTypId-feedSegId&pgId=2102&rn=250'
p2
aS'http://www.cars.com/for-sale/searchresults.action?PMmt=1-5-0&crSrtFlds=stkTypId-feedSegId-mkId-mdId&feedSegId=28705&isDealerGrouping=false&rpp=50&sf1Dir=ASC&sf1Nm=modelYear&sf2Dir=DESC&sf2Nm=price&zc=92612&rd=100000&alMdId=34083&stkTypId=28881&mkId=20019&mdId=21394&mdId=40845&mdId=35027&mdId=21418&mdId=35028&mdId=21394&yrId=20198&yrId=20143&yrId=20198&searchSource=GN_REFINEMENT'
p3
aS'http://www.cars.com/for-sale/searchresults.action?PMmt=1-4-0&crSrtFlds=stkTypId-feedSegId-mkId&feedSegId=28705&isDealerGrouping=false&rpp=50&sf1Dir=DESC&sf1Nm=modelYear&sf2Dir=DESC&sf2Nm=price&zc=92612&rd=100000&alMdId=34083&stkTypId=28881&mkId=20019&mdId=21179&mdId=21153&mdId=52108&mdId=52969&mdId=21179&photoId=46724&searchSource=GN_REFINEMENT'
p4
aS'http://www.cars.com/for-sale/searchresults.action?feedSegId=28705&rpp=50&photoId=46724&sf2Nm=price&requestorTrackingInfo=RTB_SEARCH&sf1Nm=modelYear&sf2Dir=DESC&stkTypId=28881&PMmt=1-4-0&zc=92612&rd=100000&mdId=21179&mdId=52969&mdId=21153&mdId=52108&mkId=20019&alMdId=34083&sf1Dir=DESC&searchSource=UTILITY&crSrtFlds=stkTypId-feedSegId-mkId&pgId=2102&rn=2700'
p5
aS'http://www.cars.com/for-sale/searchresults.action?feedSegId=28705&photoId=46724&sf2Nm=price&requestorTrackingInfo=RTB_SEARCH&sf1Nm=modelYear&sf2Dir=DESC&stkTypId=28881&PMmt=1-3-0&zc=92612&rd=100000&mdId=21808&mdId=54450&mdId=21760&mkId=20019&alMdId=34083&sf1Dir=ASC&searchSource=UTILITY&crSrtFlds=stkTypId-feedSegId-mkId&pgId=2102&rpp=100'
p6
aS'http://www.cars.com/for-sale/searchresults.action?feedSegId=28705&photoId=46724&sf2Nm=price&requestorTrackingInfo=RTB_SEARCH&sf1Nm=modelYear&sf2Dir=DESC&stkTypId=28881&PMmt=1-1-0&zc=92612&rd=100000&mdId=54451&mkId=20019&alMdId=34083&sf1Dir=DESC&searchSource=UTILITY&crSrtFlds=stkTypId-feedSegId-mkId&pgId=2102&rpp=250'
p7
aS'http://www.cars.com/for-sale/searchresults.action?feedSegId=28705&photoId=46724&sf2Nm=miles&requestorTrackingInfo=RTB_SEARCH&sf1Nm=price&sf2Dir=ASC&stkTypId=28881&PMmt=1-1-0&zc=92612&rd=100000&mdId=42323&mkId=20064&sf1Dir=DESC&searchSource=UTILITY&crSrtFlds=stkTypId-feedSegId-mkId-mdId&pgId=2102&rpp=250'
p8
aS'http://www.cars.com/for-sale/searchresults.action?feedSegId=28705&photoId=46724&sf2Nm=miles&requestorTrackingInfo=RTB_SEARCH&sf1Nm=price&sf2Dir=ASC&stkTypId=28881&PMmt=1-1-0&zc=92612&rd=100000&mdId=22146&mkId=20064&sf1Dir=DESC&searchSource=UTILITY&crSrtFlds=stkTypId-feedSegId-mkId-mdId&pgId=2102&rpp=250'
p9
aS'http://www.cars.com/for-sale/searchresults.action?feedSegId=28705&rpp=250&photoId=46724&sf2Nm=miles&requestorTrackingInfo=RTB_SEARCH&sf1Nm=price&sf2Dir=ASC&stkTypId=28881&PMmt=1-1-0&zc=92612&rd=100000&mdId=22146&mkId=20064&sf1Dir=DESC&searchSource=UTILITY&crSrtFlds=stkTypId-feedSegId-mkId-mdId&pgId=2102&rn=4750'
p10
aS'http://www.cars.com/for-sale/searchresults.action?PMmt=1-1-0&crSrtFlds=stkTypId-feedSegId-mkId-mdId&feedSegId=28705&isDealerGrouping=false&rpp=250&sf1Dir=DESC&sf1Nm=price&sf2Dir=ASC&sf2Nm=miles&zc=92612&rd=100000&stkTypId=28881&mkId=20064&mdId=22146&photoId=46724&yrId=20200&yrId=20145&yrId=20200&searchSource=GN_REFINEMENT'
p11
aS'http://www.cars.com/for-sale/searchresults.action?feedSegId=28705&rpp=250&photoId=46724&sf2Nm=miles&requestorTrackingInfo=RTB_SEARCH&yrId=20145&yrId=20200&sf1Nm=price&sf2Dir=ASC&stkTypId=28881&PMmt=1-1-0&zc=92612&rd=100000&mdId=22146&mkId=20064&sf1Dir=DESC&searchSource=UTILITY&crSrtFlds=stkTypId-feedSegId-mkId-mdId&pgId=2102&rn=250'
p12
aS'http://www.cars.com/for-sale/searchresults.action?PMmt=1-1-0&crSrtFlds=stkTypId-feedSegId-mkId-mdId&feedSegId=28705&isDealerGrouping=false&rpp=250&sf1Dir=DESC&sf1Nm=price&sf2Dir=ASC&sf2Nm=miles&zc=92612&rd=100000&stkTypId=28881&mkId=20064&mdId=22146&photoId=46724&yrId=20197&yrId=20142&yrId=20198&yrId=20143&yrId=20197&searchSource=GN_REFINEMENT'
p13
aS'http://www.cars.com/for-sale/searchresults.action?PMmt=1-0-0&crSrtFlds=stkTypId-feedSegId-mkId&feedSegId=28705&isDealerGrouping=false&rpp=250&sf1Dir=DESC&sf1Nm=price&sf2Dir=ASC&sf2Nm=miles&zc=92612&rd=100000&stkTypId=28881&mkId=20064&photoId=46724&mdId=35963&searchSource=GN_REFINEMENT'
p14
aS'http://www.cars.com/for-sale/searchresults.action?PMmt=1-0-0&crSrtFlds=stkTypId-feedSegId-mkId&feedSegId=28705&isDealerGrouping=false&rpp=250&sf1Dir=DESC&sf1Nm=price&sf2Dir=ASC&sf2Nm=miles&zc=92612&rd=100000&stkTypId=28881&mkId=20064&photoId=46724&mdId=21221&mdId=30263&mdId=21221&searchSource=GN_REFINEMENT'
p15
aS'http://www.cars.com/for-sale/searchresults.action?feedSegId=28705&rpp=250&photoId=46724&requestorTrackingInfo=RTB_SEARCH&stkTypId=28881&PMmt=1-2-0&zc=92612&rd=100000&mdId=21221&mdId=30263&mkId=20064&searchSource=SORT_USED&crSrtFlds=stkTypId-feedSegId-mkId&pgId=2102&sf1Nm=modelYear&sf1Dir=ASC&sf2Nm=price&sf2Dir=ASC'
p16
aS'http://www.cars.com/for-sale/searchresults.action?feedSegId=28705&rpp=250&photoId=46724&sf2Nm=price&requestorTrackingInfo=RTB_SEARCH&sf1Nm=modelYear&sf2Dir=ASC&stkTypId=28881&PMmt=1-2-0&zc=92612&rd=100000&mdId=21221&mdId=30263&mkId=20064&sf1Dir=ASC&searchSource=UTILITY&crSrtFlds=stkTypId-feedSegId-mkId&pgId=2102&rn=250'
p17
aS'http://www.cars.com/for-sale/searchresults.action?PMmt=1-1-0&crSrtFlds=stkTypId-feedSegId-mkId-mdId&feedSegId=28705&isDealerGrouping=false&rpp=50&sf1Dir=DESC&sf1Nm=price&sf2Dir=ASC&sf2Nm=miles&zc=92612&rd=100000&stkTypId=28881&mkId=20064&mdId=22272&photoId=46724&searchSource=GN_REFINEMENT'
p18
aS'http://www.cars.com/for-sale/searchresults.action?feedSegId=28705&photoId=46724&sf2Nm=miles&requestorTrackingInfo=RTB_SEARCH&sf1Nm=price&sf2Dir=ASC&stkTypId=28881&PMmt=1-1-0&zc=92612&rd=100000&mdId=21899&mkId=20064&sf1Dir=DESC&searchSource=UTILITY&crSrtFlds=stkTypId-feedSegId-mkId&pgId=2102&rpp=250'
p19
aS'http://www.cars.com/for-sale/searchresults.action?feedSegId=28705&rpp=250&photoId=46724&sf2Nm=miles&requestorTrackingInfo=RTB_SEARCH&sf1Nm=price&sf2Dir=ASC&stkTypId=28881&PMmt=1-1-0&zc=92612&rd=100000&mdId=21899&mkId=20064&sf1Dir=DESC&searchSource=UTILITY&crSrtFlds=stkTypId-feedSegId-mkId&pgId=2102&rn=250'
p20
aS'http://www.cars.com/for-sale/searchresults.action?PMmt=1-1-0&crSrtFlds=stkTypId-feedSegId-mkId&feedSegId=28705&isDealerGrouping=false&rpp=250&sf1Dir=DESC&sf1Nm=price&sf2Dir=ASC&sf2Nm=miles&zc=92612&rd=100000&stkTypId=28881&mkId=20064&mdId=21899&photoId=46724&yrId=20201&yrId=27381&yrId=20145&yrId=20201&searchSource=GN_REFINEMENT'
p21
a.