(lp0
S'http://www.cars.com/for-sale/searchresults.action?feedSegId=28705&rpp=50&photoId=46724&sf2Nm=price&requestorTrackingInfo=RTB_SEARCH&yrId=20195&yrId=20194&yrId=20139&yrId=20138&yrId=20137&yrId=20136&yrId=20140&sf1Nm=modelYear&sf2Dir=DESC&stkTypId=28881&PMmt=1-2-0&zc=92612&rd=100000&mdId=21285&mdId=21242&mkId=20089&sf1Dir=ASC&searchSource=GN_BREADCRUMB&crSrtFlds=stkTypId-feedSegId-mkId&pgId=2102'
p1
aS'http://www.cars.com/for-sale/searchresults.action?feedSegId=28705&rpp=100&photoId=46724&sf2Nm=miles&requestorTrackingInfo=RTB_SEARCH&sf1Nm=price&sf2Dir=ASC&PMmt=1-1-0&zc=92612&rd=100000&mdId=56208&mkId=20044&sf1Dir=DESC&searchSource=UTILITY&crSrtFlds=feedSegId-mkId-mdId&pgId=2102&rn=100'
p2
aS'http://www.cars.com/for-sale/searchresults.action?PMmt=1-1-0&crSrtFlds=feedSegId-mkId&feedSegId=28705&isDealerGrouping=false&rpp=100&sf1Dir=ASC&sf1Nm=modelYear&sf2Dir=DESC&sf2Nm=price&zc=92612&rd=100000&mkId=20044&mdId=22350&photoId=46724&yrId=20141&yrId=20196&yrId=20140&yrId=20141&searchSource=GN_REFINEMENT'
p3
a.