(lp0
S'http://www.cars.com/for-sale/searchresults.action?PMmt=1-1-0&bsId=20211&crSrtFlds=stkTypId-feedSegId-mkId-mdId&feedSegId=28705&isDealerGrouping=false&mdId=21179&mkId=20019&photoId=46724&requestorTrackingInfo=RTB_SEARCH&rpp=50&sf1Dir=DESC&sf1Nm=actualPhotoCount&sf2Dir=DESC&sf2Nm=price&stkTypId=28881&yrId=20199&yrId=20198&yrId=20143&zc=92612&rd=250&searchSource=UTILITY'
p1
aS'http://www.cars.com/for-sale/searchresults.action?feedSegId=28705&photoId=46724&sf2Nm=miles&requestorTrackingInfo=RTB_SEARCH&sf1Nm=price&sf2Dir=ASC&PMmt=1-1-0&zc=92612&rd=100000&mdId=54539&mkId=20019&sf1Dir=DESC&searchSource=UTILITY&crSrtFlds=feedSegId-mkId-mdId&pgId=2102&rpp=100'
p2
a.