(lp0
S'http://www.cars.com/for-sale/new/honda/accord/_/N-ma8Zfg1ZfweZm5d?feedSegId=28705&rpp=100&requestorTrackingInfo=RTB_SEARCH&stkTypId=28880&PMmt=1-1-0&zc=92612&rd=100000&mdId=20606&mkId=20017&searchSource=SORT_NEW&crSrtFlds=stkTypId-feedSegId-mkId-mdId&pgId=2102&sf1Nm=actualPhotoCount&sf1Dir=DESC&sf2Nm=price&sf2Dir=DESC'
p1
aS'http://www.cars.com/for-sale/new/subaru/xv-crosstrek/_/N-ma8ZfgpZ118pZm5d?feedSegId=28705&sf2Nm=price&requestorTrackingInfo=RTB_SEARCH&sf1Nm=actualPhotoCount&sf2Dir=DESC&stkTypId=28880&PMmt=1-1-0&zc=92612&rd=100000&mdId=48265&mkId=20041&sf1Dir=DESC&searchSource=UTILITY&crSrtFlds=stkTypId-feedSegId-mkId-mdId&pgId=2102&rpp=100'
p2
aS'http://www.cars.com/for-sale/porsche/911/_/N-fhtZfvbZm5d?feedSegId=28705&rpp=100&requestorTrackingInfo=RTB_SEARCH&PMmt=1-1-0&zc=92612&rd=100000&mdId=20567&mkId=20081&searchSource=SORT_BLENDED&crSrtFlds=feedSegId-mkId-mdId&pgId=2102&sf1Nm=modelYear&sf1Dir=DESC&sf2Nm=price&sf2Dir=DESC'
p3
aS'http://www.cars.com/for-sale/new/nissan/rogue/_/N-ma8ZfhpZgw6Zm5d?feedSegId=28705&rpp=100&requestorTrackingInfo=RTB_SEARCH&stkTypId=28880&PMmt=1-1-0&zc=92612&rd=100000&mdId=21894&mkId=20077&searchSource=SORT_NEW&crSrtFlds=stkTypId-feedSegId-mkId-mdId&pgId=2102&sf1Nm=actualPhotoCount&sf1Dir=DESC&sf2Nm=price&sf2Dir=DESC'
p4
aS'http://www.cars.com/for-sale/new/mitsubishi/outlander-sport/_/N-ma8ZfgeZrr2Zm5d?feedSegId=28705&rpp=100&requestorTrackingInfo=RTB_SEARCH&stkTypId=28880&PMmt=1-1-0&zc=92612&rd=100000&mdId=35966&mkId=20030&searchSource=SORT_NEW&crSrtFlds=stkTypId-feedSegId-mkId-mdId&pgId=2102&sf1Nm=actualPhotoCount&sf1Dir=DESC&sf2Nm=price&sf2Dir=DESC'
p5
aS'http://www.cars.com/for-sale/searchresults.action?PMmt=1-2-0&crSrtFlds=feedSegId-mkId&feedSegId=28705&isDealerGrouping=false&rpp=100&sf1Dir=DESC&sf1Nm=actualPhotoCount&sf2Dir=DESC&sf2Nm=price&zc=92612&rd=100000&mkId=20075&yrId=20145&mdId=20872&mdId=20874&mdId=20872&bsId=20203&bsId=20206&bsId=20203&searchSource=GN_REFINEMENT'
p6
aS'http://www.cars.com/for-sale/searchresults.action?feedSegId=28705&rpp=100&requestorTrackingInfo=RTB_SEARCH&yrId=20199&yrId=20198&yrId=20143&PMmt=1-1-0&zc=92612&rd=100000&mdId=21719&mkId=20025&searchSource=SORT_BLENDED&crSrtFlds=feedSegId-mkId-mdId&pgId=2102&sf1Nm=actualPhotoCount&sf1Dir=DESC&sf2Nm=price&sf2Dir=DESC'
p7
aS'http://www.cars.com/for-sale/gmc/acadia/_/N-fh9ZfwfZm5d?feedSegId=28705&rpp=100&requestorTrackingInfo=RTB_SEARCH&PMmt=1-1-0&zc=92612&rd=100000&mdId=20607&mkId=20061&searchSource=SORT_BLENDED&crSrtFlds=feedSegId-mkId-mdId&pgId=2102&sf1Nm=actualPhotoCount&sf1Dir=DESC&sf2Nm=price&sf2Dir=DESC'
p8
aS'http://www.cars.com/for-sale/new/gmc/terrain/_/N-ma8Zfh9Zn5fZm5d?feedSegId=28705&rpp=100&requestorTrackingInfo=RTB_SEARCH&stkTypId=28880&PMmt=1-1-0&zc=92612&rd=100000&mdId=30003&mkId=20061&searchSource=SORT_NEW&crSrtFlds=stkTypId-feedSegId-mkId-mdId&pgId=2102&sf1Nm=actualPhotoCount&sf1Dir=DESC&sf2Nm=price&sf2Dir=DESC'
p9
aS'http://www.cars.com/for-sale/new/gmc/yukon/_/N-ma8Zfh9Zha1Zm5d?feedSegId=28705&rpp=100&requestorTrackingInfo=RTB_SEARCH&stkTypId=28880&PMmt=1-1-0&zc=92612&rd=100000&mdId=22393&mkId=20061&searchSource=SORT_NEW&crSrtFlds=stkTypId-feedSegId-mkId-mdId&pgId=2102&sf1Nm=actualPhotoCount&sf1Dir=DESC&sf2Nm=price&sf2Dir=DESC'
p10
aS'http://www.cars.com/for-sale/new/land-rover/discovery-sport/_/N-ma8Zfg8Z18xiZm5d?feedSegId=28705&rpp=100&requestorTrackingInfo=RTB_SEARCH&stkTypId=28880&PMmt=1-1-0&zc=92612&rd=100000&mdId=58230&mkId=20024&searchSource=SORT_NEW&crSrtFlds=stkTypId-feedSegId-mkId-mdId&pgId=2102&sf1Nm=actualPhotoCount&sf1Dir=DESC&sf2Nm=price&sf2Dir=DESC'
p11
aS'http://www.cars.com/for-sale/new/chevrolet/ss/_/N-ma8Zfh1Z14n0Zm5d?feedSegId=28705&rpp=100&requestorTrackingInfo=RTB_SEARCH&stkTypId=28880&PMmt=1-1-0&zc=92612&rd=100000&mdId=52668&mkId=20053&searchSource=SORT_NEW&crSrtFlds=stkTypId-feedSegId-mkId-mdId&pgId=2102&sf1Nm=actualPhotoCount&sf1Dir=DESC&sf2Nm=price&sf2Dir=DESC'
p12
aS'http://www.cars.com/for-sale/searchresults.action?feedSegId=28705&rpp=100&requestorTrackingInfo=RTB_SEARCH&yrId=30031936&stkTypId=28880&PMmt=1-1-0&zc=92612&rd=100000&mdId=21759&mkId=20049&searchSource=SORT_NEW&crSrtFlds=stkTypId-feedSegId-mkId-mdId&pgId=2102&sf1Nm=actualPhotoCount&sf1Dir=DESC&sf2Nm=price&sf2Dir=DESC'
p13
aS'http://www.cars.com/for-sale/new/buick/cascada/_/N-ma8ZffqZhv0tkZm5d?feedSegId=28705&rpp=100&requestorTrackingInfo=RTB_SEARCH&stkTypId=28880&PMmt=1-1-0&zc=92612&rd=100000&mdId=30000872&mkId=20006&searchSource=SORT_NEW&crSrtFlds=stkTypId-feedSegId-mkId-mdId&pgId=2102&sf1Nm=actualPhotoCount&sf1Dir=DESC&sf2Nm=price&sf2Dir=DESC'
p14
aS'http://www.cars.com/for-sale/new/honda/hr-v/_/N-ma8Zfg1Zhv0b8Zm5d?feedSegId=28705&rpp=100&requestorTrackingInfo=RTB_SEARCH&stkTypId=28880&PMmt=1-1-0&zc=92612&rd=100000&mdId=30000212&mkId=20017&searchSource=SORT_NEW&crSrtFlds=stkTypId-feedSegId-mkId-mdId&pgId=2102&sf1Nm=actualPhotoCount&sf1Dir=DESC&sf2Nm=price&sf2Dir=DESC'
p15
aS'http://www.cars.com/for-sale/new/chevrolet/suburban/_/N-ma8Zfh1Zh2kZm5d?feedSegId=28705&rpp=100&requestorTrackingInfo=RTB_SEARCH&stkTypId=28880&PMmt=1-1-0&zc=92612&rd=100000&mdId=22124&mkId=20053&searchSource=SORT_NEW&crSrtFlds=stkTypId-feedSegId-mkId-mdId&pgId=2102&sf1Nm=actualPhotoCount&sf1Dir=DESC&sf2Nm=price&sf2Dir=DESC'
p16
aS'http://www.cars.com/for-sale/used/hyundai/tiburon/_/N-ma9ZfhcZh6gZm5d?feedSegId=28705&rpp=100&requestorTrackingInfo=RTB_SEARCH&stkTypId=28881&PMmt=1-1-0&zc=92612&rd=100000&mdId=22264&mkId=20064&searchSource=SORT_USED&crSrtFlds=stkTypId-feedSegId-mkId-mdId&pgId=2102&sf1Nm=actualPhotoCount&sf1Dir=DESC&sf2Nm=price&sf2Dir=DESC'
p17
aS'http://www.cars.com/for-sale/hyundai/tucson/_/N-fhcZh7iZm5d?feedSegId=28705&rpp=100&sf2Nm=price&requestorTrackingInfo=RTB_SEARCH&sf1Nm=actualPhotoCount&sf2Dir=DESC&PMmt=1-1-0&zc=92612&rd=100000&mdId=22302&mkId=20064&sf1Dir=DESC&searchSource=GN_BREADCRUMB&crSrtFlds=feedSegId-mkId-mdId&pgId=2102'
p18
aS'http://www.cars.com/for-sale/new/hyundai/accent/_/N-ma8ZfhcZfwdZm5d?feedSegId=28705&rpp=100&requestorTrackingInfo=RTB_SEARCH&stkTypId=28880&PMmt=1-1-0&zc=92612&rd=100000&mdId=20605&mkId=20064&searchSource=SORT_NEW&crSrtFlds=stkTypId-feedSegId-mkId-mdId&pgId=2102&sf1Nm=actualPhotoCount&sf1Dir=DESC&sf2Nm=price&sf2Dir=DESC'
p19
aS'http://www.cars.com/for-sale/searchresults.action?PMmt=1-1-0&crSrtFlds=stkTypId-feedSegId-mkId-mdId&feedSegId=28705&isDealerGrouping=false&rpp=100&sf1Dir=DESC&sf1Nm=actualPhotoCount&sf2Dir=DESC&sf2Nm=price&zc=92612&rd=100000&stkTypId=28881&mkId=20064&mdId=21073&photoId=46724&searchSource=GN_REFINEMENT'
p20
aS'http://www.cars.com/for-sale/searchresults.action?feedSegId=28705&rpp=100&requestorTrackingInfo=RTB_SEARCH&yrId=34923&yrId=39723&yrId=47272&PMmt=1-1-0&zc=92612&rd=100000&mdId=22084&mkId=20068&searchSource=SORT_BLENDED&crSrtFlds=feedSegId-mkId-mdId&pgId=2102&sf1Nm=actualPhotoCount&sf1Dir=DESC&sf2Nm=price&sf2Dir=DESC'
p21
aS'http://www.cars.com/for-sale/searchresults.action?PMmt=1-1-0&crSrtFlds=feedSegId-mkId-mdId&feedSegId=28705&isDealerGrouping=false&rpp=100&sf1Dir=DESC&sf1Nm=actualPhotoCount&sf2Dir=DESC&sf2Nm=price&zc=92612&rd=100000&mkId=20028&mdId=57790&photoId=46724&searchSource=GN_REFINEMENT'
p22
aS'http://www.cars.com/for-sale/new/lexus/gs-200t/_/N-ma8ZfhiZhvi7oZm5d?feedSegId=28705&rpp=100&requestorTrackingInfo=RTB_SEARCH&stkTypId=28880&PMmt=1-1-0&zc=92612&rd=100000&mdId=30023412&mkId=20070&searchSource=SORT_NEW&crSrtFlds=stkTypId-feedSegId-mkId-mdId&pgId=2102&sf1Nm=actualPhotoCount&sf1Dir=DESC&sf2Nm=price&sf2Dir=DESC'
p23
aS'http://www.cars.com/for-sale/new/jaguar/xj/_/N-ma8ZfheZh9qZm5d?feedSegId=28705&rpp=100&requestorTrackingInfo=RTB_SEARCH&stkTypId=28880&PMmt=1-1-0&zc=92612&rd=100000&mdId=22382&mkId=20066&searchSource=SORT_NEW&crSrtFlds=stkTypId-feedSegId-mkId-mdId&pgId=2102&sf1Nm=actualPhotoCount&sf1Dir=DESC&sf2Nm=price&sf2Dir=DESC'
p24
aS'http://www.cars.com/for-sale/new/jaguar/xf/_/N-ma8ZfheZh7vZm5d?feedSegId=28705&sf2Nm=price&requestorTrackingInfo=RTB_SEARCH&sf1Nm=actualPhotoCount&sf2Dir=DESC&stkTypId=28880&PMmt=1-1-0&zc=92612&rd=100000&mdId=22315&mkId=20066&sf1Dir=DESC&searchSource=UTILITY&crSrtFlds=stkTypId-feedSegId-mkId-mdId&pgId=2102&rpp=100'
p25
aS'http://www.cars.com/for-sale/searchresults.action?feedSegId=28705&rpp=100&photoId=46724&requestorTrackingInfo=RTB_SEARCH&yrId=58487&stkTypId=28880&PMmt=1-4-0&zc=92612&rd=99999&mdId=20625&mdId=20538&mdId=20539&mdId=20536&mkId=20005&alMdId=26876&searchSource=SORT_NEW&crSrtFlds=stkTypId-feedSegId-mkId-mdId&pgId=2102&sf1Nm=actualPhotoCount&sf1Dir=DESC&sf2Nm=price&sf2Dir=DESC'
p26
aS'http://www.cars.com/for-sale/searchresults.action?feedSegId=28705&rpp=100&photoId=46724&requestorTrackingInfo=RTB_SEARCH&yrId=34923&yrId=27381&yrId=20201&stkTypId=28881&PMmt=1-1-0&zc=92612&rd=100000&mdId=21761&mkId=20077&searchSource=SORT_USED&crSrtFlds=stkTypId-feedSegId-mkId-mdId&pgId=2102&sf1Nm=actualPhotoCount&sf1Dir=DESC&sf2Nm=price&sf2Dir=DESC'
p27
aS'http://www.cars.com/for-sale/searchresults.action?feedSegId=28705&rpp=100&requestorTrackingInfo=RTB_SEARCH&yrId=20199&yrId=20144&stkTypId=28881&PMmt=1-1-0&zc=92612&rd=100000&mdId=20800&mkId=20088&searchSource=SORT_USED&crSrtFlds=stkTypId-feedSegId-mkId-mdId&pgId=2102&sf1Nm=actualPhotoCount&sf1Dir=DESC&sf2Nm=price&sf2Dir=DESC'
p28
aS'http://www.cars.com/for-sale/new/nissan/quest/_/N-ma8ZfhpZgskZm5d?feedSegId=28705&rpp=100&requestorTrackingInfo=RTB_SEARCH&stkTypId=28880&PMmt=1-1-0&zc=92612&rd=100000&mdId=21764&mkId=20077&searchSource=SORT_NEW&crSrtFlds=stkTypId-feedSegId-mkId-mdId&pgId=2102&sf1Nm=actualPhotoCount&sf1Dir=DESC&sf2Nm=price&sf2Dir=DESC'
p29
aS'http://www.cars.com/for-sale/searchresults.action?PMmt=1-1-1&crSrtFlds=stkTypId-feedSegId-mkId-mdId&feedSegId=28705&isDealerGrouping=false&rpp=50&sf1Dir=DESC&sf1Nm=price&sf2Dir=ASC&sf2Nm=miles&zc=92612&rd=100000&stkTypId=28881&mkId=20028&mdId=30003456&trId=30003460&photoId=46724&searchSource=GN_REFINEMENT'
p30
aS'http://www.cars.com/for-sale/new/mercedes-benz/glc-class/_/N-ma8ZfgcZhv92cZm5d?feedSegId=28705&rpp=100&requestorTrackingInfo=RTB_SEARCH&stkTypId=28880&PMmt=1-1-0&zc=92612&rd=100000&mdId=30011556&mkId=20028&searchSource=SORT_NEW&crSrtFlds=stkTypId-feedSegId-mkId-mdId&pgId=2102&sf1Nm=actualPhotoCount&sf1Dir=DESC&sf2Nm=price&sf2Dir=DESC'
p31
a.