(lp0
S'http://www.cars.com/for-sale/searchresults.action?feedSegId=28705&sf2Nm=price&requestorTrackingInfo=RTB_SEARCH&sf1Nm=modelYear&sf2Dir=DESC&stkTypId=28881&PMmt=1-1-0&zc=92612&rd=100000&mdId=21710&mkId=20077&sf1Dir=ASC&searchSource=UTILITY&crSrtFlds=stkTypId-feedSegId-mkId-mdId&pgId=2102&rpp=100'
p1
aS'http://www.cars.com/for-sale/searchresults.action?feedSegId=28705&sf2Nm=miles&requestorTrackingInfo=RTB_SEARCH&sf1Nm=price&sf2Dir=ASC&stkTypId=28881&PMmt=1-1-0&zc=92612&rd=100000&mdId=20392&mkId=20030&sf1Dir=DESC&searchSource=UTILITY&crSrtFlds=stkTypId-feedSegId-mkId&pgId=2102&rpp=250'
p2
aS'http://www.cars.com/for-sale/searchresults.action?PMmt=1-1-0&crSrtFlds=stkTypId-feedSegId&feedSegId=28705&isDealerGrouping=false&rpp=250&sf1Dir=ASC&sf1Nm=modelYear&sf2Dir=DESC&sf2Nm=price&zc=92612&rd=100000&stkTypId=28881&mkId=20028&mdId=21414&yrId=27381&yrId=20201&yrId=20145&yrId=20200&yrId=20144&yrId=27381&searchSource=GN_REFINEMENT'
p3
aS'http://www.cars.com/for-sale/used/chrysler/300/_/N-ma9ZffsZfqcZm5d?feedSegId=28705&sf2Nm=price&requestorTrackingInfo=RTB_SEARCH&sf1Nm=modelYear&sf2Dir=DESC&stkTypId=28881&PMmt=1-1-0&zc=92612&rd=100000&mdId=20388&mkId=20008&sf1Dir=DESC&searchSource=UTILITY&crSrtFlds=stkTypId-feedSegId-mkId-mdId&pgId=2102&rpp=250'
p4
aS'http://www.cars.com/for-sale/searchresults.action?PMmt=1-1-0&crSrtFlds=stkTypId-feedSegId-mkId-mdId&feedSegId=28705&isDealerGrouping=false&rpp=250&sf1Dir=DESC&sf1Nm=price&sf2Dir=ASC&sf2Nm=miles&zc=92612&rd=100000&stkTypId=28881&mkId=20024&mdId=21811&photoId=46724&searchSource=GN_REFINEMENT'
p5
aS'http://www.cars.com/for-sale/searchresults.action?feedSegId=28705&rpp=250&photoId=46724&sf2Nm=miles&requestorTrackingInfo=RTB_SEARCH&sf1Nm=price&sf2Dir=ASC&PMmt=1-2-0&zc=92612&rd=100000&mdId=20999&mdId=58230&mkId=20024&sf1Dir=DESC&searchSource=GN_BREADCRUMB&crSrtFlds=feedSegId-mkId&pgId=2102'
p6
aS'http://www.cars.com/for-sale/searchresults.action?feedSegId=28705&rpp=250&photoId=46724&sf2Nm=miles&requestorTrackingInfo=RTB_SEARCH&sf1Nm=price&sf2Dir=ASC&PMmt=1-2-0&zc=92612&rd=100000&mdId=20999&mdId=58230&mkId=20024&sf1Dir=DESC&searchSource=UTILITY&crSrtFlds=feedSegId-mkId&pgId=2102&rn=250'
p7
aS'http://www.cars.com/for-sale/searchresults.action?feedSegId=28705&rpp=250&photoId=46724&sf2Nm=price&requestorTrackingInfo=RTB_SEARCH&sf1Nm=modelYear&sf2Dir=DESC&PMmt=1-2-0&zc=92612&rd=100000&mkId=20024&sf1Dir=ASC&searchSource=GN_BREADCRUMB&crSrtFlds=feedSegId-mkId&pgId=2102'
p8
aS'http://www.cars.com/for-sale/searchresults.action?feedSegId=28705&photoId=46724&sf2Nm=price&requestorTrackingInfo=RTB_SEARCH&sf1Nm=modelYear&sf2Dir=DESC&stkTypId=28881&PMmt=1-1-0&zc=92612&rd=100000&mdId=21729&mkId=20017&sf1Dir=ASC&searchSource=UTILITY&crSrtFlds=stkTypId-feedSegId-mkId-mdId&pgId=2102&rpp=100'
p9
aS'http://www.cars.com/for-sale/searchresults.action?feedSegId=28705&photoId=46724&sf2Nm=price&requestorTrackingInfo=RTB_SEARCH&sf1Nm=modelYear&sf2Dir=DESC&PMmt=1-1-0&zc=92612&rd=100000&mdId=21729&mkId=20017&sf1Dir=DESC&searchSource=UTILITY&crSrtFlds=feedSegId-mkId-mdId&pgId=2102&rpp=250'
p10
aS'http://www.cars.com/for-sale/searchresults.action?PMmt=1-1-0&crSrtFlds=stkTypId-feedSegId-mkId-mdId&feedSegId=28705&isDealerGrouping=false&rpp=250&sf1Dir=DESC&sf1Nm=price&sf2Dir=ASC&sf2Nm=miles&zc=92612&rd=100000&stkTypId=28881&mkId=20028&mdId=21877&yrId=27381&yrId=20201&yrId=20145&yrId=20200&yrId=20144&yrId=20199&yrId=20143&yrId=27381&photoId=46724&searchSource=GN_REFINEMENT'
p11
aS'http://www.cars.com/for-sale/searchresults.action?PMmt=1-0-0&crSrtFlds=stkTypId-feedSegId-mkId&feedSegId=28705&isDealerGrouping=false&rpp=250&sf1Dir=DESC&sf1Nm=price&sf2Dir=ASC&sf2Nm=miles&zc=92612&rd=100000&stkTypId=28881&mkId=20028&photoId=46724&mdId=21930&searchSource=GN_REFINEMENT'
p12
aS'http://www.cars.com/for-sale/searchresults.action?PMmt=1-1-0&crSrtFlds=stkTypId-feedSegId-mkId&feedSegId=28705&isDealerGrouping=false&rpp=250&sf1Dir=DESC&sf1Nm=price&sf2Dir=ASC&sf2Nm=miles&zc=92612&rd=100000&stkTypId=28881&mkId=20073&mdId=21460&photoId=46724&searchSource=GN_REFINEMENT'
p13
aS'http://www.cars.com/for-sale/searchresults.action?feedSegId=28705&rpp=250&photoId=46724&sf2Nm=miles&requestorTrackingInfo=RTB_SEARCH&sf1Nm=price&sf2Dir=ASC&PMmt=1-1-0&zc=92612&rd=100000&mdId=21460&mkId=20073&sf1Dir=DESC&searchSource=GN_BREADCRUMB&crSrtFlds=feedSegId-mkId&pgId=2102'
p14
aS'http://www.cars.com/for-sale/searchresults.action?feedSegId=28705&rpp=250&photoId=46724&sf2Nm=miles&requestorTrackingInfo=RTB_SEARCH&sf1Nm=price&sf2Dir=ASC&PMmt=1-1-0&zc=92612&rd=100000&mdId=21460&mkId=20073&sf1Dir=DESC&searchSource=UTILITY&crSrtFlds=feedSegId-mkId&pgId=2102&rn=250'
p15
aS'http://www.cars.com/for-sale/searchresults.action?stkTyp=U&tracktype=usedcc&mkId=20070&AmbMkId=20070&AmbMkNm=Lexus&make=Lexus&AmbMdNm=CT%20200h&model=CT%20200h&mdId=35964&AmbMdId=35964&prMx=&rd=100000&zc=92612&searchSource=QUICK_FORM&enableSeo=1'
p16
aS'http://www.cars.com/for-sale/searchresults.action?feedSegId=28705&photoId=46724&sf2Nm=price&requestorTrackingInfo=RTB_SEARCH&sf1Nm=modelYear&sf2Dir=DESC&stkTypId=28881&PMmt=1-1-0&zc=92612&rd=100000&mdId=21190&mkId=20028&sf1Dir=DESC&searchSource=UTILITY&crSrtFlds=stkTypId-feedSegId-mkId&pgId=2102&rpp=100'
p17
aS'http://www.cars.com/for-sale/searchresults.action?PMmt=1-0-0&crSrtFlds=stkTypId-feedSegId&feedSegId=28705&isDealerGrouping=false&rpp=100&sf1Dir=DESC&sf1Nm=modelYear&sf2Dir=DESC&sf2Nm=price&zc=92612&rd=100000&stkTypId=28881&mkId=20018&photoId=46724&mdId=21258&mdId=26261&mdId=21258&searchSource=GN_REFINEMENT'
p18
aS'http://www.cars.com/for-sale/searchresults.action?PMmt=1-1-0&crSrtFlds=stkTypId-feedSegId-mkId-mdId&feedSegId=28705&isDealerGrouping=false&rpp=50&sf1Dir=ASC&sf1Nm=modelYear&sf2Dir=ASC&sf2Nm=price&zc=92612&rd=100000&stkTypId=28881&mkId=20006&mdId=21071&photoId=46724&searchSource=GN_REFINEMENT'
p19
aS'http://www.cars.com/for-sale/searchresults.action?feedSegId=28705&sf2Nm=miles&requestorTrackingInfo=RTB_SEARCH&sf1Nm=price&sf2Dir=ASC&stkTypId=28881&PMmt=1-1-0&zc=92612&rd=100000&bsId=20216&mdId=20787&mkId=20052&sf1Dir=DESC&searchSource=UTILITY&crSrtFlds=stkTypId-feedSegId-mkId-mdId&pgId=2102&rpp=250'
p20
aS'http://www.cars.com/for-sale/searchresults.action?feedSegId=28705&sf2Nm=miles&requestorTrackingInfo=RTB_SEARCH&yrId=20131&yrId=20130&yrId=20182&yrId=20183&yrId=20128&yrId=20185&yrId=20126&yrId=20186&yrId=20127&yrId=20187&sf1Nm=price&sf2Dir=ASC&stkTypId=28881&PMmt=1-1-0&zc=92612&rd=100000&mdId=20770&mkId=20053&sf1Dir=DESC&searchSource=UTILITY&crSrtFlds=stkTypId-feedSegId-mkId-mdId&pgId=2102&rpp=100'
p21
a.