(lp0
S'http://www.cars.com/for-sale/searchresults.action?PMmt=1-1-0&crSrtFlds=feedSegId-mkId-mdId&feedSegId=28705&isDealerGrouping=false&rpp=250&sf1Dir=DESC&sf1Nm=actualPhotoCount&sf2Dir=DESC&sf2Nm=price&zc=92612&rd=99999&mkId=20072&mdId=21197&photoId=46724&searchSource=GN_REFINEMENT'
p1
aS'http://www.cars.com/for-sale/searchresults.action?PMmt=1-0-0&crSrtFlds=feedSegId-mkId&feedSegId=28705&isDealerGrouping=false&rpp=250&sf1Dir=DESC&sf1Nm=actualPhotoCount&sf2Dir=DESC&sf2Nm=price&zc=92612&rd=99999&mkId=20072&photoId=46724&mdId=21814&searchSource=GN_REFINEMENT'
p2
aS'http://www.cars.com/for-sale/searchresults.action?PMmt=1-1-0&crSrtFlds=feedSegId-mkId-mdId&feedSegId=28705&isDealerGrouping=false&rpp=50&sf1Dir=DESC&sf1Nm=actualPhotoCount&sf2Dir=DESC&sf2Nm=price&zc=92612&rd=100000&mkId=20049&mdId=22159&yrId=58487&searchSource=GN_REFINEMENT'
p3
a.