(lp0
S'http://www.cars.com/for-sale/searchresults.action?stkTyp=U&tracktype=usedcc&mkId=20005&AmbMkId=20005&AmbMkNm=BMW&make=BMW&AmbMdId=22396&AmbMdNm=Z8&model=Z8&mdId=22396&rd=100000&zc=92612&searchSource=QUICK_FORM'
p1
aS'http://www.cars.com/for-sale/searchresults.action?PMmt=1-1-0&crSrtFlds=stkTypId-feedSegId-mkId-mdId&feedSegId=28705&isDealerGrouping=false&rpp=50&sf1Dir=DESC&sf1Nm=price&sf2Dir=ASC&sf2Nm=miles&zc=92612&rd=100000&stkTypId=28881&mkId=20006&mdId=21393&yrId=20199&yrId=20143&yrId=20198&yrId=20142&yrId=20197&yrId=20141&yrId=20199&photoId=46724&searchSource=GN_REFINEMENT'
p2
aS'http://www.cars.com/for-sale/searchresults.action?feedSegId=28705&rpp=50&photoId=46724&sf2Nm=miles&requestorTrackingInfo=RTB_SEARCH&yrId=20199&yrId=20198&yrId=20197&yrId=20143&yrId=20142&yrId=20141&sf1Nm=price&sf2Dir=ASC&stkTypId=28881&PMmt=1-1-0&zc=92612&rd=100000&mdId=21393&mkId=20006&sf1Dir=DESC&searchSource=UTILITY&crSrtFlds=stkTypId-feedSegId-mkId-mdId&pgId=2102&rn=50'
p3
aS'http://www.cars.com/for-sale/searchresults.action?feedSegId=28705&rpp=50&photoId=46724&sf2Nm=miles&requestorTrackingInfo=RTB_SEARCH&yrId=20199&yrId=20198&yrId=20197&yrId=20143&yrId=20142&yrId=20141&sf1Nm=price&sf2Dir=ASC&stkTypId=28881&PMmt=1-1-0&zc=92612&rd=100000&mdId=21393&mkId=20006&sf1Dir=DESC&searchSource=UTILITY&crSrtFlds=stkTypId-feedSegId-mkId-mdId&pgId=2102&rn=100'
p4
aS'http://www.cars.com/for-sale/searchresults.action?stkTyp=U&tracktype=usedcc&mkId=20006&AmbMkId=20006&AmbMkNm=Buick&make=Buick&AmbMdNm=Rainier&model=Rainier&mdId=21798&AmbMdId=21798&prMx=&rd=100000&zc=92612&searchSource=QUICK_FORM&enableSeo=1'
p5
aS'http://www.cars.com/for-sale/used/buick/rainier/_/N-ma9ZffqZgtiZm5d?feedSegId=28705&rpp=50&sf2Nm=miles&requestorTrackingInfo=RTB_SEARCH&sf1Nm=price&sf2Dir=ASC&stkTypId=28881&PMmt=1-1-0&zc=92612&rd=100000&mdId=21798&mkId=20006&sf1Dir=DESC&searchSource=UTILITY&crSrtFlds=stkTypId-feedSegId-mkId-mdId&pgId=2102&rn=50'
p6
aS'http://www.cars.com/for-sale/used/buick/rainier/_/N-ma9ZffqZgtiZm5d?feedSegId=28705&rpp=50&sf2Nm=miles&requestorTrackingInfo=RTB_SEARCH&sf1Nm=price&sf2Dir=ASC&stkTypId=28881&PMmt=1-1-0&zc=92612&rd=100000&mdId=21798&mkId=20006&sf1Dir=DESC&searchSource=UTILITY&crSrtFlds=stkTypId-feedSegId-mkId-mdId&pgId=2102&rn=100'
p7
aS'http://www.cars.com/for-sale/used/buick/rainier/_/N-ma9ZffqZgtiZm5d?feedSegId=28705&rpp=50&sf2Nm=miles&requestorTrackingInfo=RTB_SEARCH&sf1Nm=price&sf2Dir=ASC&stkTypId=28881&PMmt=1-1-0&zc=92612&rd=100000&mdId=21798&mkId=20006&sf1Dir=DESC&searchSource=UTILITY&crSrtFlds=stkTypId-feedSegId-mkId-mdId&pgId=2102&rn=150'
p8
aS'http://www.cars.com/for-sale/used/buick/rendezvous/_/N-ma9ZffqZgvvZm5d?feedSegId=28705&sf2Nm=miles&requestorTrackingInfo=RTB_SEARCH&sf1Nm=price&sf2Dir=ASC&stkTypId=28881&PMmt=1-1-0&zc=92612&rd=100000&mdId=21883&mkId=20006&sf1Dir=DESC&searchSource=UTILITY&crSrtFlds=stkTypId-feedSegId-mkId-mdId&pgId=2102&rpp=50'
p9
aS'http://www.cars.com/for-sale/used/buick/rendezvous/_/N-ma9ZffqZgvvZm5d?feedSegId=28705&rpp=50&sf2Nm=miles&requestorTrackingInfo=RTB_SEARCH&sf1Nm=price&sf2Dir=ASC&stkTypId=28881&PMmt=1-1-0&zc=92612&rd=100000&mdId=21883&mkId=20006&sf1Dir=DESC&searchSource=UTILITY&crSrtFlds=stkTypId-feedSegId-mkId-mdId&pgId=2102&rn=50'
p10
aS'http://www.cars.com/for-sale/searchresults.action?feedSegId=28705&sf2Nm=price&requestorTrackingInfo=RTB_SEARCH&sf1Nm=modelYear&sf2Dir=DESC&stkTypId=28881&PMmt=1-2-0&zc=92612&rd=100000&mdId=20826&mdId=21830&mkId=20006&sf1Dir=DESC&searchSource=UTILITY&crSrtFlds=stkTypId-feedSegId-mkId&pgId=2102&rpp=250'
p11
aS'http://www.cars.com/for-sale/searchresults.action?feedSegId=28705&rpp=250&sf2Nm=price&requestorTrackingInfo=RTB_SEARCH&sf1Nm=modelYear&sf2Dir=DESC&stkTypId=28881&PMmt=1-2-0&zc=92612&rd=100000&mdId=20826&mdId=21830&mkId=20006&sf1Dir=DESC&searchSource=UTILITY&crSrtFlds=stkTypId-feedSegId-mkId&pgId=2102&rn=250'
p12
aS'http://www.cars.com/for-sale/searchresults.action?feedSegId=28705&rpp=50&requestorTrackingInfo=RTB_SEARCH&stkTypId=28881&PMmt=1-1-0&zc=92612&rd=100000&mdId=21830&mkId=20006&searchSource=SORT_USED&crSrtFlds=stkTypId-feedSegId-mkId&pgId=2102&sf1Nm=modelYear&sf1Dir=DESC&sf2Nm=price&sf2Dir=DESC'
p13
aS'http://www.cars.com/for-sale/used/cadillac/cts/_/N-ma9Zfh0Zg1fZm5d?feedSegId=28705&sf2Nm=price&requestorTrackingInfo=RTB_SEARCH&sf1Nm=modelYear&sf2Dir=DESC&stkTypId=28881&PMmt=1-1-0&zc=92612&rd=100000&mdId=20787&mkId=20052&sf1Dir=ASC&searchSource=UTILITY&crSrtFlds=stkTypId-feedSegId-mkId-mdId&pgId=2102&rpp=250'
p14
aS'http://www.cars.com/for-sale/searchresults.action?PMmt=1-1-0&crSrtFlds=stkTypId-feedSegId-mkId-mdId&feedSegId=28705&isDealerGrouping=false&rpp=250&sf1Dir=ASC&sf1Nm=modelYear&sf2Dir=DESC&sf2Nm=price&zc=92612&rd=100000&stkTypId=28881&mkId=20052&mdId=20787&photoId=46724&searchSource=GN_REFINEMENT'
p15
aS'http://www.cars.com/for-sale/searchresults.action?PMmt=1-0-0&crSrtFlds=feedSegId-mkId&feedSegId=28705&isDealerGrouping=false&rpp=250&sf1Dir=DESC&sf1Nm=modelYear&sf2Dir=DESC&sf2Nm=price&zc=92612&rd=100000&mkId=20052&bsId=20203&photoId=46724&mdId=52107&searchSource=GN_REFINEMENT'
p16
aS'http://www.cars.com/for-sale/searchresults.action?PMmt=1-0-0&crSrtFlds=feedSegId-mkId&feedSegId=28705&isDealerGrouping=false&rpp=250&sf1Dir=DESC&sf1Nm=modelYear&sf2Dir=DESC&sf2Nm=price&zc=92612&rd=100000&mkId=20052&photoId=46724&mdId=21134&searchSource=GN_REFINEMENT'
p17
aS'http://www.cars.com/for-sale/searchresults.action?feedSegId=28705&rpp=250&photoId=46724&requestorTrackingInfo=RTB_SEARCH&PMmt=1-1-0&zc=92612&rd=100000&mdId=20987&mkId=20052&searchSource=SORT_BLENDED&crSrtFlds=feedSegId-mkId&pgId=2102&sf1Nm=modelYear&sf1Dir=ASC&sf2Nm=price&sf2Dir=DESC'
p18
aS'http://www.cars.com/for-sale/searchresults.action?feedSegId=28705&rpp=50&photoId=46724&sf2Nm=miles&requestorTrackingInfo=RTB_SEARCH&yrId=58487&sf1Nm=price&sf2Dir=ASC&PMmt=1-1-0&zc=92612&rd=100000&mdId=22380&mkId=20044&sf1Dir=DESC&searchSource=GN_BREADCRUMB&crSrtFlds=feedSegId-mkId-mdId&pgId=2102'
p19
aS'http://www.cars.com/for-sale/searchresults.action?stkTyp=U&tracktype=usedcc&mkId=20089&AmbMkId=20089&AmbMkNm=Volkswagen&make=Volkswagen&AmbMdNm=Phaeton&model=Phaeton&mdId=21723&AmbMdId=21723&prMx=&rd=100000&zc=92612&searchSource=QUICK_FORM&enableSeo=1'
p20
aS'http://www.cars.com/for-sale/searchresults.action?PMmt=1-1-0&crSrtFlds=stkTypId-feedSegId-mkId-mdId&feedSegId=28705&isDealerGrouping=false&rpp=50&sf1Dir=DESC&sf1Nm=price&sf2Dir=ASC&sf2Nm=miles&zc=92612&rd=100000&stkTypId=28881&mkId=20089&mdId=21285&yrId=20140&yrId=20195&yrId=20139&yrId=20194&yrId=20140&photoId=46724&searchSource=GN_REFINEMENT'
p21
a.