(lp0
S'http://www.cars.com/for-sale/searchresults.action?PMmt=1-1-0&crSrtFlds=stkTypId-feedSegId-mkId-mdId&feedSegId=28705&isDealerGrouping=false&rpp=100&sf1Dir=ASC&sf1Nm=price&sf2Dir=ASC&sf2Nm=miles&zc=92612&rd=100000&stkTypId=28881&mkId=20068&mdId=28323&bsId=20206&photoId=46724&searchSource=GN_REFINEMENT'
p1
aS'http://www.cars.com/for-sale/used/land-rover/discovery/_/N-ma9Zfg8Zg7bZm5d?feedSegId=28705&sf2Nm=miles&requestorTrackingInfo=RTB_SEARCH&sf1Nm=price&sf2Dir=ASC&stkTypId=28881&PMmt=1-1-0&zc=92612&rd=100000&mdId=20999&mkId=20024&sf1Dir=DESC&searchSource=UTILITY&crSrtFlds=stkTypId-feedSegId-mkId-mdId&pgId=2102&rpp=250'
p2
aS'http://www.cars.com/for-sale/searchresults.action?PMmt=1-1-0&crSrtFlds=stkTypId-feedSegId-mkId&feedSegId=28705&isDealerGrouping=false&rpp=250&sf1Dir=DESC&sf1Nm=price&sf2Dir=ASC&sf2Nm=miles&zc=92612&rd=100000&stkTypId=28881&mkId=20024&mdId=21335&photoId=46724&searchSource=GN_REFINEMENT'
p3
aS'http://www.cars.com/for-sale/searchresults.action?PMmt=1-0-0&crSrtFlds=stkTypId-feedSegId-mkId&feedSegId=28705&isDealerGrouping=false&rpp=250&sf1Dir=DESC&sf1Nm=price&sf2Dir=ASC&sf2Nm=miles&zc=92612&rd=100000&stkTypId=28881&mkId=20024&photoId=46724&mdId=21811&searchSource=GN_REFINEMENT'
p4
aS'http://www.cars.com/for-sale/searchresults.action?feedSegId=28705&rpp=250&photoId=46724&sf2Nm=miles&requestorTrackingInfo=RTB_SEARCH&sf1Nm=price&sf2Dir=ASC&stkTypId=28881&PMmt=1-1-0&zc=92612&rd=100000&mdId=21811&mkId=20024&sf1Dir=DESC&searchSource=UTILITY&crSrtFlds=stkTypId-feedSegId-mkId&pgId=2102&rn=250'
p5
aS'http://www.cars.com/for-sale/searchresults.action?PMmt=1-4-0&crSrtFlds=stkTypId-feedSegId&feedSegId=28705&isDealerGrouping=false&rpp=250&sf1Dir=ASC&sf1Nm=modelYear&sf2Dir=DESC&sf2Nm=price&zc=92612&rd=100000&stkTypId=28881&mkId=20070&mdId=21337&mdId=21363&mdId=21339&mdId=21364&mdId=21337&photoId=46724&yrId=20136&yrId=20192&yrId=20137&yrId=20193&yrId=20138&yrId=20136&searchSource=GN_REFINEMENT'
p6
aS'http://www.cars.com/for-sale/searchresults.action?feedSegId=28705&rpp=50&photoId=46724&sf2Nm=price&requestorTrackingInfo=RTB_SEARCH&yrId=20197&yrId=20196&yrId=20142&yrId=20141&sf1Nm=modelYear&sf2Dir=DESC&stkTypId=28881&PMmt=1-3-0&zc=92612&rd=100000&mdId=21839&mdId=21787&mdId=21785&mkId=20070&sf1Dir=ASC&searchSource=UTILITY&crSrtFlds=stkTypId-feedSegId&pgId=2102&rn=200'
p7
aS'http://www.cars.com/for-sale/searchresults.action?feedSegId=28705&rpp=50&photoId=46724&sf2Nm=price&requestorTrackingInfo=RTB_SEARCH&yrId=20197&yrId=20196&yrId=20142&yrId=20141&sf1Nm=modelYear&sf2Dir=DESC&stkTypId=28881&PMmt=1-3-0&zc=92612&rd=100000&mdId=21839&mdId=21787&mdId=21785&mkId=20070&sf1Dir=ASC&searchSource=UTILITY&crSrtFlds=stkTypId-feedSegId&pgId=2102&rn=150'
p8
aS'http://www.cars.com/for-sale/searchresults.action?PMmt=1-1-0&crSrtFlds=stkTypId-feedSegId&feedSegId=28705&isDealerGrouping=false&rpp=50&sf1Dir=ASC&sf1Nm=modelYear&sf2Dir=DESC&sf2Nm=price&zc=92612&rd=100000&stkTypId=28881&mkId=20073&mdId=21446&photoId=46724&bsId=20211&searchSource=GN_REFINEMENT'
p9
aS'http://www.cars.com/for-sale/searchresults.action?feedSegId=28705&rpp=50&photoId=46724&sf2Nm=price&requestorTrackingInfo=RTB_SEARCH&sf1Nm=modelYear&sf2Dir=DESC&stkTypId=28881&PMmt=1-1-0&zc=92612&rd=100000&bsId=20211&mdId=21446&mkId=20073&sf1Dir=ASC&searchSource=UTILITY&crSrtFlds=stkTypId-feedSegId&pgId=2102&rn=50'
p10
aS'http://www.cars.com/for-sale/searchresults.action?feedSegId=28705&sf2Nm=miles&requestorTrackingInfo=RTB_SEARCH&sf1Nm=price&sf2Dir=ASC&stkTypId=28881&PMmt=1-1-0&zc=92612&rd=100000&mdId=20886&mkId=20074&sf1Dir=DESC&searchSource=UTILITY&crSrtFlds=stkTypId-feedSegId-mkId&pgId=2102&rpp=250'
p11
aS'http://www.cars.com/for-sale/searchresults.action?PMmt=1-0-0&crSrtFlds=stkTypId-feedSegId-mkId&feedSegId=28705&isDealerGrouping=false&rpp=250&sf1Dir=DESC&sf1Nm=price&sf2Dir=ASC&sf2Nm=miles&zc=92612&rd=100000&stkTypId=28881&mkId=20074&mdId=21674&searchSource=GN_REFINEMENT'
p12
aS'http://www.cars.com/for-sale/searchresults.action?feedSegId=28705&rpp=250&sf2Nm=miles&requestorTrackingInfo=RTB_SEARCH&sf1Nm=price&sf2Dir=ASC&stkTypId=28881&PMmt=1-1-0&zc=92612&rd=100000&mdId=21674&mkId=20074&sf1Dir=DESC&searchSource=UTILITY&crSrtFlds=stkTypId-feedSegId-mkId&pgId=2102&rn=250'
p13
aS'http://www.cars.com/for-sale/searchresults.action?PMmt=1-0-0&crSrtFlds=stkTypId-feedSegId-mkId&feedSegId=28705&isDealerGrouping=false&rpp=250&sf1Dir=DESC&sf1Nm=price&sf2Dir=ASC&sf2Nm=miles&zc=92612&rd=100000&stkTypId=28881&mkId=20074&mdId=21704&searchSource=GN_REFINEMENT'
p14
aS'http://www.cars.com/for-sale/searchresults.action?PMmt=1-1-0&crSrtFlds=stkTypId-feedSegId-mkId&feedSegId=28705&isDealerGrouping=false&rpp=250&sf1Dir=DESC&sf1Nm=price&sf2Dir=ASC&sf2Nm=miles&zc=92612&rd=100000&stkTypId=28881&mkId=20074&mdId=21944&photoId=46724&searchSource=GN_REFINEMENT'
p15
aS'http://www.cars.com/for-sale/searchresults.action?feedSegId=28705&rpp=250&photoId=46724&sf2Nm=miles&requestorTrackingInfo=RTB_SEARCH&sf1Nm=price&sf2Dir=ASC&stkTypId=28881&PMmt=1-1-0&zc=92612&rd=100000&mdId=21944&mkId=20074&sf1Dir=DESC&searchSource=UTILITY&crSrtFlds=stkTypId-feedSegId-mkId&pgId=2102&rn=250'
p16
aS'http://www.cars.com/for-sale/searchresults.action?feedSegId=28705&rpp=250&photoId=46724&sf2Nm=miles&requestorTrackingInfo=RTB_SEARCH&sf1Nm=price&sf2Dir=ASC&stkTypId=28881&PMmt=1-1-0&zc=92612&rd=100000&mdId=21944&mkId=20074&sf1Dir=DESC&searchSource=UTILITY&crSrtFlds=stkTypId-feedSegId-mkId&pgId=2102&rn=500'
p17
aS'http://www.cars.com/for-sale/searchresults.action?PMmt=1-1-0&crSrtFlds=stkTypId-feedSegId-mkId&feedSegId=28705&isDealerGrouping=false&rpp=250&sf1Dir=ASC&sf1Nm=modelYear&sf2Dir=DESC&sf2Nm=price&zc=92612&rd=100000&stkTypId=28881&mkId=20074&mdId=21706&photoId=46724&yrId=20195&yrId=20140&yrId=20196&yrId=20141&yrId=20197&yrId=20195&searchSource=GN_REFINEMENT'
p18
aS'http://www.cars.com/for-sale/searchresults.action?feedSegId=28705&photoId=46724&sf2Nm=price&requestorTrackingInfo=RTB_SEARCH&sf1Nm=modelYear&sf2Dir=DESC&stkTypId=28881&PMmt=1-1-0&zc=92612&rd=100000&mdId=21223&mkId=20074&sf1Dir=DESC&searchSource=UTILITY&crSrtFlds=stkTypId-feedSegId-mkId&pgId=2102&rpp=100'
p19
aS'http://www.cars.com/for-sale/searchresults.action?PMmt=1-3-0&crSrtFlds=stkTypId-feedSegId-mkId-mdId&feedSegId=28705&isDealerGrouping=false&rpp=50&sf1Dir=DESC&sf1Nm=price&sf2Dir=ASC&sf2Nm=miles&zc=92612&rd=100000&alMdId=53149&stkTypId=28881&mkId=20075&mdId=38203&mdId=20855&mdId=20857&mdId=38203&photoId=46724&searchSource=GN_REFINEMENT'
p20
aS'http://www.cars.com/for-sale/searchresults.action?PMmt=0-1-0&crSrtFlds=stkTypId-feedSegId-mdId&feedSegId=28705&isDealerGrouping=false&rpp=50&sf1Dir=DESC&sf1Nm=price&sf2Dir=ASC&sf2Nm=miles&zc=92612&rd=100000&alMdId=53149&stkTypId=28881&mdId=21037&photoId=46724&yrId=20140&yrId=20196&yrId=20139&yrId=20195&yrId=20194&yrId=20140&searchSource=GN_REFINEMENT'
p21
a.