(lp0
S'http://www.cars.com/for-sale/searchresults.action?feedSegId=28705&photoId=46724&sf2Nm=miles&requestorTrackingInfo=RTB_SEARCH&sf1Nm=price&sf2Dir=ASC&stkTypId=28881&PMmt=1-1-0&zc=92612&rd=100000&mdId=21447&mkId=20073&sf1Dir=DESC&searchSource=UTILITY&crSrtFlds=stkTypId-feedSegId-mkId-mdId&pgId=2102&rpp=100'
p1
aS'http://www.cars.com/for-sale/searchresults.action?PMmt=1-1-0&crSrtFlds=stkTypId-feedSegId-mkId-mdId&feedSegId=28705&isDealerGrouping=false&rpp=250&sf1Dir=DESC&sf1Nm=price&sf2Dir=ASC&sf2Nm=miles&zc=92612&rd=100000&stkTypId=28881&mkId=20070&mdId=35964&photoId=46724&searchSource=GN_REFINEMENT'
p2
aS'http://www.cars.com/for-sale/searchresults.action?PMmt=1-0-0&crSrtFlds=stkTypId-feedSegId-mkId&feedSegId=28705&isDealerGrouping=false&rpp=250&sf1Dir=DESC&sf1Nm=price&sf2Dir=ASC&sf2Nm=miles&zc=92612&rd=100000&stkTypId=28881&mkId=20070&photoId=46724&mdId=21337&searchSource=GN_REFINEMENT'
p3
aS'http://www.cars.com/for-sale/searchresults.action?feedSegId=28705&photoId=46724&sf2Nm=miles&requestorTrackingInfo=RTB_SEARCH&sf1Nm=price&sf2Dir=ASC&stkTypId=28881&PMmt=1-4-0&zc=92612&rd=100000&mdId=21027&mdId=48266&mdId=21025&mdId=21044&mkId=20070&alMdId=34003&sf1Dir=DESC&searchSource=UTILITY&crSrtFlds=stkTypId-feedSegId-mkId-mdId&pgId=2102&rpp=250'
p4
aS'http://www.cars.com/for-sale/searchresults.action?PMmt=1-4-0&crSrtFlds=stkTypId-feedSegId-mkId-mdId&feedSegId=28705&isDealerGrouping=false&rpp=250&sf1Dir=DESC&sf1Nm=price&sf2Dir=ASC&sf2Nm=miles&zc=92612&rd=100000&alMdId=34003&stkTypId=28881&mkId=20070&mdId=21025&mdId=48266&mdId=21044&mdId=21027&mdId=21025&photoId=46724&yrId=34923&yrId=27381&yrId=20201&yrId=20145&yrId=20200&yrId=20144&yrId=34923&searchSource=GN_REFINEMENT'
p5
aS'http://www.cars.com/for-sale/searchresults.action?feedSegId=28705&rpp=250&photoId=46724&sf2Nm=miles&requestorTrackingInfo=RTB_SEARCH&yrId=20144&yrId=20145&yrId=34923&yrId=27381&yrId=20201&yrId=20200&sf1Nm=price&sf2Dir=ASC&stkTypId=28881&PMmt=1-4-0&zc=92612&rd=100000&mdId=21027&mdId=48266&mdId=21025&mdId=21044&mkId=20070&alMdId=34003&sf1Dir=DESC&searchSource=UTILITY&crSrtFlds=stkTypId-feedSegId-mkId-mdId&pgId=2102&rn=250'
p6
aS'http://www.cars.com/for-sale/searchresults.action?PMmt=1-4-0&crSrtFlds=stkTypId-feedSegId-mkId-mdId&feedSegId=28705&isDealerGrouping=false&rpp=250&sf1Dir=DESC&sf1Nm=price&sf2Dir=ASC&sf2Nm=miles&zc=92612&rd=100000&alMdId=34003&stkTypId=28881&mkId=20070&mdId=21025&mdId=48266&mdId=21044&mdId=21027&mdId=21025&photoId=46724&yrId=20199&yrId=20143&yrId=20198&yrId=20142&yrId=20199&searchSource=GN_REFINEMENT'
p7
aS'http://www.cars.com/for-sale/searchresults.action?PMmt=1-4-0&crSrtFlds=stkTypId-feedSegId-mkId-mdId&feedSegId=28705&isDealerGrouping=false&rpp=250&sf1Dir=DESC&sf1Nm=price&sf2Dir=ASC&sf2Nm=miles&zc=92612&rd=100000&alMdId=34003&stkTypId=28881&mkId=20070&mdId=21025&mdId=48266&mdId=21044&mdId=21027&mdId=21025&photoId=46724&yrId=20197&yrId=20141&yrId=20196&yrId=20140&yrId=20195&yrId=20139&yrId=20194&yrId=20138&yrId=20193&yrId=20137&yrId=20197&searchSource=GN_REFINEMENT'
p8
aS'http://www.cars.com/for-sale/searchresults.action?feedSegId=28705&rpp=250&photoId=46724&sf2Nm=miles&requestorTrackingInfo=RTB_SEARCH&yrId=20197&yrId=20196&yrId=20195&yrId=20194&yrId=20193&yrId=20139&yrId=20138&yrId=20137&yrId=20141&yrId=20140&sf1Nm=price&sf2Dir=ASC&stkTypId=28881&PMmt=1-4-0&zc=92612&rd=100000&mdId=21027&mdId=48266&mdId=21025&mdId=21044&mkId=20070&alMdId=34003&sf1Dir=DESC&searchSource=UTILITY&crSrtFlds=stkTypId-feedSegId-mkId-mdId&pgId=2102&rn=250'
p9
aS'http://www.cars.com/for-sale/searchresults.action?feedSegId=28705&photoId=46724&sf2Nm=miles&requestorTrackingInfo=RTB_SEARCH&sf1Nm=price&sf2Dir=ASC&stkTypId=28881&PMmt=1-1-0&zc=92612&rd=100000&mdId=43403&mkId=20024&sf1Dir=DESC&searchSource=UTILITY&crSrtFlds=stkTypId-feedSegId-mkId-mdId&pgId=2102&rpp=100'
p10
aS'http://www.cars.com/for-sale/searchresults.action?PMmt=1-1-0&crSrtFlds=stkTypId-feedSegId-mkId-mdId&feedSegId=28705&isDealerGrouping=false&rpp=250&sf1Dir=DESC&sf1Nm=price&sf2Dir=ASC&sf2Nm=miles&zc=92612&rd=100000&stkTypId=28881&mkId=20068&mdId=21970&photoId=46724&searchSource=GN_REFINEMENT'
p11
aS'http://www.cars.com/for-sale/searchresults.action?feedSegId=28705&rpp=250&photoId=46724&sf2Nm=miles&requestorTrackingInfo=RTB_SEARCH&sf1Nm=price&sf2Dir=ASC&PMmt=1-0-0&zc=92612&rd=100000&mkId=20068&sf1Dir=DESC&searchSource=GN_BREADCRUMB&crSrtFlds=feedSegId-mkId&pgId=2102'
p12
aS'http://www.cars.com/for-sale/searchresults.action?feedSegId=28705&rpp=250&photoId=46724&sf2Nm=miles&requestorTrackingInfo=RTB_SEARCH&sf1Nm=price&sf2Dir=ASC&PMmt=1-0-0&zc=92612&rd=100000&mkId=20068&sf1Dir=DESC&searchSource=UTILITY&crSrtFlds=feedSegId-mkId&pgId=2102&rn=250'
p13
aS'http://www.cars.com/for-sale/searchresults.action?PMmt=1-0-0&crSrtFlds=feedSegId-mkId&feedSegId=28705&isDealerGrouping=false&rpp=250&sf1Dir=DESC&sf1Nm=price&sf2Dir=ASC&sf2Nm=miles&zc=92612&rd=100000&mkId=20068&photoId=46724&mdId=27761&searchSource=GN_REFINEMENT'
p14
aS'http://www.cars.com/for-sale/searchresults.action?feedSegId=28705&rpp=250&photoId=46724&sf2Nm=miles&requestorTrackingInfo=RTB_SEARCH&sf1Nm=price&sf2Dir=ASC&PMmt=1-1-0&zc=92612&rd=100000&mdId=27761&mkId=20068&sf1Dir=DESC&searchSource=UTILITY&crSrtFlds=feedSegId-mkId&pgId=2102&rn=250'
p15
aS'http://www.cars.com/for-sale/searchresults.action?PMmt=1-0-0&crSrtFlds=feedSegId-mkId&feedSegId=28705&isDealerGrouping=false&rpp=250&sf1Dir=DESC&sf1Nm=price&sf2Dir=ASC&sf2Nm=miles&zc=92612&rd=100000&mkId=20068&photoId=46724&mdId=22084&searchSource=GN_REFINEMENT'
p16
aS'http://www.cars.com/for-sale/searchresults.action?feedSegId=28705&rpp=250&photoId=46724&sf2Nm=miles&requestorTrackingInfo=RTB_SEARCH&sf1Nm=price&sf2Dir=ASC&PMmt=1-1-0&zc=92612&rd=100000&mdId=22084&mkId=20068&sf1Dir=DESC&searchSource=UTILITY&crSrtFlds=feedSegId-mkId&pgId=2102&rn=250'
p17
aS'http://www.cars.com/for-sale/searchresults.action?feedSegId=28705&photoId=46724&sf2Nm=miles&requestorTrackingInfo=RTB_SEARCH&sf1Nm=price&sf2Dir=ASC&stkTypId=28881&PMmt=1-1-0&zc=92612&rd=100000&mdId=20814&mkId=20021&sf1Dir=ASC&searchSource=UTILITY&crSrtFlds=stkTypId-feedSegId-mkId-mdId&pgId=2102&rpp=250'
p18
aS'http://www.cars.com/for-sale/searchresults.action?PMmt=1-4-0&crSrtFlds=stkTypId-feedSegId-mdId&feedSegId=28705&isDealerGrouping=false&rpp=250&sf1Dir=ASC&sf1Nm=price&sf2Dir=ASC&sf2Nm=miles&zc=92612&rd=100000&stkTypId=28881&mdId=22382&mdId=22320&mdId=22383&mdId=22322&mdId=22382&mkId=20066&photoId=46724&yrId=20139&yrId=20194&yrId=20138&yrId=20193&yrId=20137&yrId=20192&yrId=20136&yrId=20191&yrId=20135&yrId=20195&yrId=20140&yrId=20139&searchSource=GN_REFINEMENT'
p19
aS'http://www.cars.com/for-sale/searchresults.action?PMmt=1-0-0&crSrtFlds=stkTypId-feedSegId&feedSegId=28705&isDealerGrouping=false&rpp=250&sf1Dir=ASC&sf1Nm=price&sf2Dir=ASC&sf2Nm=miles&zc=92612&rd=100000&stkTypId=28881&mkId=20066&photoId=46724&mdId=21851&searchSource=GN_REFINEMENT'
p20
aS'http://www.cars.com/for-sale/searchresults.action?feedSegId=28705&rpp=250&photoId=46724&sf2Nm=miles&requestorTrackingInfo=RTB_SEARCH&sf1Nm=price&sf2Dir=ASC&stkTypId=28881&PMmt=1-1-0&zc=92612&rd=100000&mdId=21851&mkId=20066&sf1Dir=ASC&searchSource=UTILITY&crSrtFlds=stkTypId-feedSegId&pgId=2102&rn=250'
p21
a.