(lp0
V/iihs/ratings/vehicle/v/acura/csx-canada-only-4-door-sedan
p1
aV/iihs/ratings/vehicle/v/acura/ilx-4-door-sedan
p2
aV/iihs/ratings/vehicle/v/acura/mdx-4-door-suv
p3
aV/iihs/ratings/vehicle/v/acura/rdx-4-door-suv
p4
aV/iihs/ratings/vehicle/v/acura/rl-4-door-sedan
p5
aV/iihs/ratings/vehicle/v/acura/rlx-4-door-sedan
p6
aV/iihs/ratings/vehicle/v/acura/tl-4-door-sedan
p7
aV/iihs/ratings/vehicle/v/acura/tlx-4-door-sedan
p8
aV/iihs/ratings/vehicle/v/acura/tsx-4-door-sedan
p9
aV/iihs/ratings/vehicle/v/acura/tsx-sport-wagon-4-door-wagon
p10
aV/iihs/ratings/vehicle/v/acura/zdx-4-door-suv
p11
aV/iihs/ratings/vehicle/v/audi/a3-4-door-sedan
p12
aV/iihs/ratings/vehicle/v/audi/a3-4-door-wagon
p13
aV/iihs/ratings/vehicle/v/audi/a4-4-door-sedan
p14
aV/iihs/ratings/vehicle/v/audi/a4-cabriolet-2-door-convertible
p15
aV/iihs/ratings/vehicle/v/audi/a6-4-door-sedan
p16
aV/iihs/ratings/vehicle/v/audi/q3-4-door-suv
p17
aV/iihs/ratings/vehicle/v/audi/q5-4-door-suv
p18
aV/iihs/ratings/vehicle/v/audi/q7-4-door-suv
p19
aV/iihs/ratings/vehicle/v/audi/s4-4-door-sedan
p20
aV/iihs/ratings/vehicle/v/bmw/2-series-2-door-coupe
p21
aV/iihs/ratings/vehicle/v/bmw/3-series-4-door-sedan
p22
aV/iihs/ratings/vehicle/v/bmw/3-series-2-door-convertible
p23
aV/iihs/ratings/vehicle/v/bmw/5-series-4-door-sedan
p24
aV/iihs/ratings/vehicle/v/bmw/x1-4-door-suv
p25
aV/iihs/ratings/vehicle/v/bmw/x3-4-door-suv
p26
aV/iihs/ratings/vehicle/v/bmw/x5-4-door-suv
p27
aV/iihs/ratings/vehicle/v/buick/century-4-door-sedan
p28
aV/iihs/ratings/vehicle/v/buick/enclave-4-door-suv
p29
aV/iihs/ratings/vehicle/v/buick/encore-4-door-suv
p30
aV/iihs/ratings/vehicle/v/buick/lacrosse-4-door-sedan
p31
aV/iihs/ratings/vehicle/v/buick/lesabre-4-door-sedan
p32
aV/iihs/ratings/vehicle/v/buick/lucerne-4-door-sedan
p33
aV/iihs/ratings/vehicle/v/buick/park-avenue-4-door-sedan
p34
aV/iihs/ratings/vehicle/v/buick/rainier-4-door-suv
p35
aV/iihs/ratings/vehicle/v/buick/regal-4-door-sedan
p36
aV/iihs/ratings/vehicle/v/buick/rendezvous-4-door-suv
p37
aV/iihs/ratings/vehicle/v/buick/terraza-minivan
p38
aV/iihs/ratings/vehicle/v/buick/verano-4-door-sedan
p39
aV/iihs/ratings/vehicle/v/cadillac/ats-4-door-sedan
p40
aV/iihs/ratings/vehicle/v/cadillac/catera-4-door-sedan
p41
aV/iihs/ratings/vehicle/v/cadillac/cts-4-door-sedan
p42
aV/iihs/ratings/vehicle/v/cadillac/dts-4-door-sedan
p43
aV/iihs/ratings/vehicle/v/cadillac/seville-4-door-sedan
p44
aV/iihs/ratings/vehicle/v/cadillac/srx-4-door-suv
p45
aV/iihs/ratings/vehicle/v/cadillac/sts-4-door-sedan
p46
aV/iihs/ratings/vehicle/v/cadillac/xts-4-door-sedan
p47
aV/iihs/ratings/vehicle/v/chevrolet/astro-minivan
p48
aV/iihs/ratings/vehicle/v/chevrolet/aveo-4-door-sedan
p49
aV/iihs/ratings/vehicle/v/chevrolet/blazer-4-door-suv
p50
aV/iihs/ratings/vehicle/v/chevrolet/cavalier-4-door-sedan
p51
aV/iihs/ratings/vehicle/v/chevrolet/cobalt-4-door-sedan
p52
aV/iihs/ratings/vehicle/v/chevrolet/cobalt-2-door-coupe
p53
aV/iihs/ratings/vehicle/v/chevrolet/colorado-regular-cab-pickup
p54
aV/iihs/ratings/vehicle/v/chevrolet/colorado-extended-cab-pickup
p55
aV/iihs/ratings/vehicle/v/chevrolet/colorado-crew-cab-pickup
p56
aV/iihs/ratings/vehicle/v/chevrolet/cruze-4-door-sedan
p57
aV/iihs/ratings/vehicle/v/chevrolet/equinox-4-door-suv
p58
aV/iihs/ratings/vehicle/v/chevrolet/hhr-4-door-wagon
p59
aV/iihs/ratings/vehicle/v/chevrolet/impala-4-door-sedan
p60
aV/iihs/ratings/vehicle/v/chevrolet/lumina-4-door-sedan
p61
aV/iihs/ratings/vehicle/v/chevrolet/malibu-4-door-sedan
p62
aV/iihs/ratings/vehicle/v/chevrolet/malibu-classic-4-door-sedan
p63
aV/iihs/ratings/vehicle/v/chevrolet/prizm-4-door-sedan
p64
aV/iihs/ratings/vehicle/v/chevrolet/s-10-regular-cab-pickup
p65
aV/iihs/ratings/vehicle/v/chevrolet/silverado-1500-extended-cab-pickup
p66
aV/iihs/ratings/vehicle/v/chevrolet/silverado-1500-crew-cab-pickup
p67
aV/iihs/ratings/vehicle/v/chevrolet/silverado-1500-classic-extended-cab-pickup
p68
aV/iihs/ratings/vehicle/v/chevrolet/sonic-4-door-sedan
p69
aV/iihs/ratings/vehicle/v/chevrolet/spark-4-door-hatchback
p70
aV/iihs/ratings/vehicle/v/chevrolet/tahoe-4-door-suv
p71
aV/iihs/ratings/vehicle/v/chevrolet/tracker-4-door-suv
p72
aV/iihs/ratings/vehicle/v/chevrolet/trailblazer-4-door-suv
p73
aV/iihs/ratings/vehicle/v/chevrolet/traverse-4-door-suv
p74
aV/iihs/ratings/vehicle/v/chevrolet/trax-4-door-suv
p75
aV/iihs/ratings/vehicle/v/chevrolet/uplander-minivan
p76
aV/iihs/ratings/vehicle/v/chevrolet/venture-minivan
p77
aV/iihs/ratings/vehicle/v/chevrolet/volt-4-door-sedan
p78
aV/iihs/ratings/vehicle/v/chrysler/200-4-door-sedan
p79
aV/iihs/ratings/vehicle/v/chrysler/200-2-door-convertible
p80
aV/iihs/ratings/vehicle/v/chrysler/300-4-door-sedan
p81
aV/iihs/ratings/vehicle/v/chrysler/300m-4-door-sedan
p82
aV/iihs/ratings/vehicle/v/chrysler/cirrus-4-door-sedan
p83
aV/iihs/ratings/vehicle/v/chrysler/concorde-lx-lxi-4-door-sedan
p84
aV/iihs/ratings/vehicle/v/chrysler/lhs-4-door-sedan
p85
aV/iihs/ratings/vehicle/v/chrysler/lhs-concorde-limited-4-door-sedan
p86
aV/iihs/ratings/vehicle/v/chrysler/pacifica-4-door-suv
p87
aV/iihs/ratings/vehicle/v/chrysler/pt-cruiser-4-door-wagon
p88
aV/iihs/ratings/vehicle/v/chrysler/sebring-4-door-sedan
p89
aV/iihs/ratings/vehicle/v/chrysler/sebring-2-door-convertible
p90
aV/iihs/ratings/vehicle/v/chrysler/town--n--country-minivan
p91
aV/iihs/ratings/vehicle/v/daewoo/leganza-4-door-sedan
p92
aV/iihs/ratings/vehicle/v/dodge/avenger-4-door-sedan
p93
aV/iihs/ratings/vehicle/v/dodge/caliber-4-door-wagon
p94
aV/iihs/ratings/vehicle/v/dodge/charger-4-door-sedan
p95
aV/iihs/ratings/vehicle/v/dodge/dakota-regular-cab-pickup
p96
aV/iihs/ratings/vehicle/v/dodge/dakota-extended-cab-pickup
p97
aV/iihs/ratings/vehicle/v/dodge/dakota-crew-cab-pickup
p98
aV/iihs/ratings/vehicle/v/dodge/dart-4-door-sedan
p99
aV/iihs/ratings/vehicle/v/dodge/durango-4-door-suv
p100
aV/iihs/ratings/vehicle/v/dodge/grand-caravan-minivan
p101
aV/iihs/ratings/vehicle/v/dodge/intrepid-4-door-sedan
p102
aV/iihs/ratings/vehicle/v/dodge/journey-4-door-suv
p103
aV/iihs/ratings/vehicle/v/dodge/magnum-4-door-wagon
p104
aV/iihs/ratings/vehicle/v/dodge/neon-4-door-sedan
p105
aV/iihs/ratings/vehicle/v/dodge/nitro-4-door-suv
p106
aV/iihs/ratings/vehicle/v/dodge/ram-1500-extended-cab-pickup
p107
aV/iihs/ratings/vehicle/v/dodge/ram-1500-crew-cab-pickup
p108
aV/iihs/ratings/vehicle/v/dodge/srt-4-4-door-sedan
p109
aV/iihs/ratings/vehicle/v/dodge/stratus-4-door-sedan
p110
aV/iihs/ratings/vehicle/v/ford/aerostar-minivan
p111
aV/iihs/ratings/vehicle/v/ford/c-max-hybrid-4-door-wagon
p112
aV/iihs/ratings/vehicle/v/ford/contour-4-door-sedan
p113
aV/iihs/ratings/vehicle/v/ford/crown-victoria-4-door-sedan
p114
aV/iihs/ratings/vehicle/v/ford/edge-4-door-suv
p115
aV/iihs/ratings/vehicle/v/ford/escape-4-door-suv
p116
aV/iihs/ratings/vehicle/v/ford/escort-4-door-sedan
p117
aV/iihs/ratings/vehicle/v/ford/expedition-4-door-suv
p118
aV/iihs/ratings/vehicle/v/ford/explorer-4-door-suv
p119
aV/iihs/ratings/vehicle/v/ford/explorer-sport-trac-4-door-suv
p120
aV/iihs/ratings/vehicle/v/ford/f-150-extended-cab-pickup
p121
aV/iihs/ratings/vehicle/v/ford/f-150-crew-cab-pickup
p122
aV/iihs/ratings/vehicle/v/ford/f-150-heritage-extended-cab-pickup
p123
aV/iihs/ratings/vehicle/v/ford/fiesta-4-door-sedan
p124
aV/iihs/ratings/vehicle/v/ford/fiesta-4-door-hatchback
p125
aV/iihs/ratings/vehicle/v/ford/five-hundred-4-door-sedan
p126
aV/iihs/ratings/vehicle/v/ford/flex-4-door-suv
p127
aV/iihs/ratings/vehicle/v/ford/focus-4-door-sedan
p128
aV/iihs/ratings/vehicle/v/ford/focus-4-door-hatchback
p129
aV/iihs/ratings/vehicle/v/ford/focus-2-door-coupe
p130
aV/iihs/ratings/vehicle/v/ford/freestar-minivan
p131
aV/iihs/ratings/vehicle/v/ford/freestyle-4-door-suv
p132
aV/iihs/ratings/vehicle/v/ford/fusion-4-door-sedan
p133
aV/iihs/ratings/vehicle/v/ford/mustang-2-door-coupe
p134
aV/iihs/ratings/vehicle/v/ford/mustang-2-door-convertible
p135
aV/iihs/ratings/vehicle/v/ford/ranger-regular-cab-pickup
p136
aV/iihs/ratings/vehicle/v/ford/ranger-extended-cab-pickup
p137
aV/iihs/ratings/vehicle/v/ford/taurus-4-door-sedan
p138
aV/iihs/ratings/vehicle/v/ford/taurus-x-4-door-suv
p139
aV/iihs/ratings/vehicle/v/ford/windstar-minivan
p140
aV/iihs/ratings/vehicle/v/honda/accord-4-door-sedan
p141
aV/iihs/ratings/vehicle/v/honda/accord-2-door-coupe
p142
aV/iihs/ratings/vehicle/v/honda/civic-4-door-sedan
p143
aV/iihs/ratings/vehicle/v/honda/civic-2-door-coupe
p144
aV/iihs/ratings/vehicle/v/honda/crosstour-4-door-suv
p145
aV/iihs/ratings/vehicle/v/honda/cr-v-4-door-suv
p146
aV/iihs/ratings/vehicle/v/honda/cr-z-2-door-hatchback
p147
aV/iihs/ratings/vehicle/v/honda/element-4-door-suv
p148
aV/iihs/ratings/vehicle/v/honda/fit-4-door-wagon
p149
aV/iihs/ratings/vehicle/v/honda/insight-4-door-hatchback
p150
aV/iihs/ratings/vehicle/v/honda/odyssey-minivan
p151
aV/iihs/ratings/vehicle/v/honda/passport-4-door-suv
p152
aV/iihs/ratings/vehicle/v/honda/pilot-4-door-suv
p153
aV/iihs/ratings/vehicle/v/honda/ridgeline-crew-cab-pickup
p154
aV/iihs/ratings/vehicle/v/hyundai/accent-4-door-sedan
p155
aV/iihs/ratings/vehicle/v/hyundai/accent-4-door-hatchback
p156
aV/iihs/ratings/vehicle/v/hyundai/azera-4-door-sedan
p157
aV/iihs/ratings/vehicle/v/hyundai/elantra-4-door-sedan
p158
aV/iihs/ratings/vehicle/v/hyundai/elantra-touring-4-door-wagon
p159
aV/iihs/ratings/vehicle/v/hyundai/entourage-minivan
p160
aV/iihs/ratings/vehicle/v/hyundai/equus-4-door-sedan
p161
aV/iihs/ratings/vehicle/v/hyundai/genesis-4-door-sedan
p162
aV/iihs/ratings/vehicle/v/hyundai/santa-fe-4-door-suv
p163
aV/iihs/ratings/vehicle/v/hyundai/sonata-4-door-sedan
p164
aV/iihs/ratings/vehicle/v/hyundai/tucson-4-door-suv
p165
aV/iihs/ratings/vehicle/v/hyundai/veloster-2-door-hatchback
p166
aV/iihs/ratings/vehicle/v/hyundai/veracruz-4-door-suv
p167
aV/iihs/ratings/vehicle/v/hyundai/xg300-xg350-4-door-sedan
p168
aV/iihs/ratings/vehicle/v/hyundai/xg350-4-door-sedan
p169
aV/iihs/ratings/vehicle/v/infiniti/ex-4-door-suv
p170
aV/iihs/ratings/vehicle/v/infiniti/fx-4-door-suv
p171
aV/iihs/ratings/vehicle/v/infiniti/g-4-door-sedan
p172
aV/iihs/ratings/vehicle/v/infiniti/g35-4-door-sedan
p173
aV/iihs/ratings/vehicle/v/infiniti/i30-4-door-sedan
p174
aV/iihs/ratings/vehicle/v/infiniti/i35-4-door-sedan
p175
aV/iihs/ratings/vehicle/v/infiniti/jx-4-door-suv
p176
aV/iihs/ratings/vehicle/v/infiniti/m35-m45-4-door-sedan
p177
aV/iihs/ratings/vehicle/v/infiniti/m37-m56-4-door-sedan
p178
aV/iihs/ratings/vehicle/v/infiniti/q45-4-door-sedan
p179
aV/iihs/ratings/vehicle/v/infiniti/q50-4-door-sedan
p180
aV/iihs/ratings/vehicle/v/infiniti/q70-4-door-sedan
p181
aV/iihs/ratings/vehicle/v/infiniti/qx4-4-door-suv
p182
aV/iihs/ratings/vehicle/v/infiniti/qx50-4-door-suv
p183
aV/iihs/ratings/vehicle/v/infiniti/qx60-4-door-suv
p184
aV/iihs/ratings/vehicle/v/infiniti/qx70-4-door-suv
p185
aV/iihs/ratings/vehicle/v/isuzu/amigo-2-door-suv
p186
aV/iihs/ratings/vehicle/v/isuzu/ascender-4-door-suv
p187
aV/iihs/ratings/vehicle/v/isuzu/axiom-4-door-suv
p188
aV/iihs/ratings/vehicle/v/isuzu/hombre-regular-cab-pickup
p189
aV/iihs/ratings/vehicle/v/isuzu/i-series-extended-cab-pickup
p190
aV/iihs/ratings/vehicle/v/isuzu/oasis-minivan
p191
aV/iihs/ratings/vehicle/v/isuzu/rodeo-4-door-suv
p192
aV/iihs/ratings/vehicle/v/isuzu/trooper-4-door-suv
p193
aV/iihs/ratings/vehicle/v/jaguar/s-type-4-door-sedan
p194
aV/iihs/ratings/vehicle/v/jaguar/x-type-4-door-sedan
p195
aV/iihs/ratings/vehicle/v/jeep/cherokee-4-door-suv
p196
aV/iihs/ratings/vehicle/v/jeep/compass-4-door-suv
p197
aV/iihs/ratings/vehicle/v/jeep/grand-cherokee-4-door-suv
p198
aV/iihs/ratings/vehicle/v/jeep/liberty-4-door-suv
p199
aV/iihs/ratings/vehicle/v/jeep/patriot-4-door-suv
p200
aV/iihs/ratings/vehicle/v/jeep/wrangler-4-door-suv
p201
aV/iihs/ratings/vehicle/v/jeep/wrangler-2-door-suv
p202
aV/iihs/ratings/vehicle/v/kia/amanti-4-door-sedan
p203
aV/iihs/ratings/vehicle/v/kia/borrego-4-door-suv
p204
aV/iihs/ratings/vehicle/v/kia/cadenza-4-door-sedan
p205
aV/iihs/ratings/vehicle/v/kia/forte-4-door-sedan
p206
aV/iihs/ratings/vehicle/v/kia/optima-4-door-sedan
p207
aV/iihs/ratings/vehicle/v/kia/rio-4-door-sedan
p208
aV/iihs/ratings/vehicle/v/kia/rondo-4-door-wagon
p209
aV/iihs/ratings/vehicle/v/kia/sedona-minivan
p210
aV/iihs/ratings/vehicle/v/kia/sephia-4-door-sedan
p211
aV/iihs/ratings/vehicle/v/kia/sephia-spectra-4-door-sedan
p212
aV/iihs/ratings/vehicle/v/kia/sorento-4-door-suv
p213
aV/iihs/ratings/vehicle/v/kia/soul-4-door-wagon
p214
aV/iihs/ratings/vehicle/v/kia/spectra-4-door-sedan
p215
aV/iihs/ratings/vehicle/v/kia/sportage-4-door-suv
p216
aV/iihs/ratings/vehicle/v/land-rover/discovery-4-door-suv
p217
aV/iihs/ratings/vehicle/v/land-rover/discovery-series-ii-4-door-suv
p218
aV/iihs/ratings/vehicle/v/land-rover/freelander-4-door-suv
p219
aV/iihs/ratings/vehicle/v/land-rover/lr2-4-door-suv
p220
aV/iihs/ratings/vehicle/v/land-rover/lr3-4-door-suv
p221
aV/iihs/ratings/vehicle/v/lexus/ct-200h-4-door-hatchback
p222
aV/iihs/ratings/vehicle/v/lexus/es-300-4-door-sedan
p223
aV/iihs/ratings/vehicle/v/lexus/es-330-4-door-sedan
p224
aV/iihs/ratings/vehicle/v/lexus/es-350-4-door-sedan
p225
aV/iihs/ratings/vehicle/v/lexus/gs-4-door-sedan
p226
aV/iihs/ratings/vehicle/v/lexus/gx-460-4-door-suv
p227
aV/iihs/ratings/vehicle/v/lexus/gx-470-4-door-suv
p228
aV/iihs/ratings/vehicle/v/lexus/hs-250h-4-door-sedan
p229
aV/iihs/ratings/vehicle/v/lexus/is-4-door-sedan
p230
aV/iihs/ratings/vehicle/v/lexus/is-250-350-4-door-sedan
p231
aV/iihs/ratings/vehicle/v/lexus/is-300-4-door-sedan
p232
aV/iihs/ratings/vehicle/v/lexus/ls-4-door-sedan
p233
aV/iihs/ratings/vehicle/v/lexus/ls-400-4-door-sedan
p234
aV/iihs/ratings/vehicle/v/lexus/ls-430-4-door-sedan
p235
aV/iihs/ratings/vehicle/v/lexus/nx-4-door-suv
p236
aV/iihs/ratings/vehicle/v/lexus/rc-2-door-coupe
p237
aV/iihs/ratings/vehicle/v/lexus/rx-4-door-suv
p238
aV/iihs/ratings/vehicle/v/lincoln/aviator-4-door-suv
p239
aV/iihs/ratings/vehicle/v/lincoln/continental-4-door-sedan
p240
aV/iihs/ratings/vehicle/v/lincoln/ls-4-door-sedan
p241
aV/iihs/ratings/vehicle/v/lincoln/mkc-4-door-suv
p242
aV/iihs/ratings/vehicle/v/lincoln/mks-4-door-sedan
p243
aV/iihs/ratings/vehicle/v/lincoln/mkt-4-door-suv
p244
aV/iihs/ratings/vehicle/v/lincoln/mkx-4-door-suv
p245
aV/iihs/ratings/vehicle/v/lincoln/mkz-4-door-sedan
p246
aV/iihs/ratings/vehicle/v/lincoln/town-car-4-door-sedan
p247
aV/iihs/ratings/vehicle/v/lincoln/zephyr-4-door-sedan
p248
aV/iihs/ratings/vehicle/v/lincoln/zephyr-mkz-4-door-sedan
p249
aV/iihs/ratings/vehicle/v/mazda/2-4-door-hatchback
p250
aV/iihs/ratings/vehicle/v/mazda/3-4-door-sedan
p251
aV/iihs/ratings/vehicle/v/mazda/3-4-door-hatchback
p252
aV/iihs/ratings/vehicle/v/mazda/5-4-door-wagon
p253
aV/iihs/ratings/vehicle/v/mazda/6-4-door-sedan
p254
aV/iihs/ratings/vehicle/v/mazda/626-4-door-sedan
p255
aV/iihs/ratings/vehicle/v/mazda/b-series-regular-cab-pickup
p256
aV/iihs/ratings/vehicle/v/mazda/b-series-extended-cab-pickup
p257
aV/iihs/ratings/vehicle/v/mazda/cx-5-4-door-suv
p258
aV/iihs/ratings/vehicle/v/mazda/cx-7-4-door-suv
p259
aV/iihs/ratings/vehicle/v/mazda/cx-9-4-door-suv
p260
aV/iihs/ratings/vehicle/v/mazda/millenia-4-door-sedan
p261
aV/iihs/ratings/vehicle/v/mazda/mpv-minivan
p262
aV/iihs/ratings/vehicle/v/mazda/protege-4-door-sedan
p263
aV/iihs/ratings/vehicle/v/mazda/tribute-4-door-suv
p264
aV/iihs/ratings/vehicle/v/mercedes/c-class-4-door-sedan
p265
aV/iihs/ratings/vehicle/v/mercedes/cla-4-door-sedan
p266
aV/iihs/ratings/vehicle/v/mercedes/e-class-4-door-sedan
p267
aV/iihs/ratings/vehicle/v/mercedes/e-class-2-door-coupe
p268
aV/iihs/ratings/vehicle/v/mercedes/gl-class-4-door-suv
p269
aV/iihs/ratings/vehicle/v/mercedes/glk-4-door-suv
p270
aV/iihs/ratings/vehicle/v/mercedes/m-class-4-door-suv
p271
aV/iihs/ratings/vehicle/v/mercedes/r-class-4-door-suv
p272
aV/iihs/ratings/vehicle/v/mercury/grand-marquis-4-door-sedan
p273
aV/iihs/ratings/vehicle/v/mercury/mariner-4-door-suv
p274
aV/iihs/ratings/vehicle/v/mercury/milan-4-door-sedan
p275
aV/iihs/ratings/vehicle/v/mercury/montego-4-door-sedan
p276
aV/iihs/ratings/vehicle/v/mercury/monterey-minivan
p277
aV/iihs/ratings/vehicle/v/mercury/mountaineer-4-door-suv
p278
aV/iihs/ratings/vehicle/v/mercury/mystique-4-door-sedan
p279
aV/iihs/ratings/vehicle/v/mercury/sable-4-door-sedan
p280
aV/iihs/ratings/vehicle/v/mercury/tracer-4-door-sedan
p281
aV/iihs/ratings/vehicle/v/mercury/villager-minivan
p282
aV/iihs/ratings/vehicle/v/mini/cooper-2-door-hatchback
p283
aV/iihs/ratings/vehicle/v/mini/cooper-countryman-4-door-hatchback
p284
aV/iihs/ratings/vehicle/v/mitsubishi/eclipse-spyder-2-door-convertible
p285
aV/iihs/ratings/vehicle/v/mitsubishi/endeavor-4-door-suv
p286
aV/iihs/ratings/vehicle/v/mitsubishi/galant-4-door-sedan
p287
aV/iihs/ratings/vehicle/v/mitsubishi/lancer-4-door-sedan
p288
aV/iihs/ratings/vehicle/v/mitsubishi/mirage-4-door-hatchback
p289
aV/iihs/ratings/vehicle/v/mitsubishi/montero-4-door-suv
p290
aV/iihs/ratings/vehicle/v/mitsubishi/montero-sport-4-door-suv
p291
aV/iihs/ratings/vehicle/v/mitsubishi/outlander-4-door-suv
p292
aV/iihs/ratings/vehicle/v/mitsubishi/outlander-sport-4-door-suv
p293
aV/iihs/ratings/vehicle/v/mitsubishi/raider-extended-cab-pickup
p294
aV/iihs/ratings/vehicle/v/mitsubishi/raider-crew-cab-pickup
p295
aV/iihs/ratings/vehicle/v/nissan/altima-4-door-sedan
p296
aV/iihs/ratings/vehicle/v/nissan/cube-4-door-wagon
p297
aV/iihs/ratings/vehicle/v/nissan/frontier-crew-cab-pickup
p298
aV/iihs/ratings/vehicle/v/nissan/juke-4-door-wagon
p299
aV/iihs/ratings/vehicle/v/nissan/leaf-4-door-hatchback
p300
aV/iihs/ratings/vehicle/v/nissan/maxima-4-door-sedan
p301
aV/iihs/ratings/vehicle/v/nissan/murano-4-door-suv
p302
aV/iihs/ratings/vehicle/v/nissan/pathfinder-4-door-suv
p303
aV/iihs/ratings/vehicle/v/nissan/quest-minivan
p304
aV/iihs/ratings/vehicle/v/nissan/rogue-4-door-suv
p305
aV/iihs/ratings/vehicle/v/nissan/rogue-select-4-door-suv
p306
aV/iihs/ratings/vehicle/v/nissan/sentra-4-door-sedan
p307
aV/iihs/ratings/vehicle/v/nissan/titan-crew-cab-pickup
p308
aV/iihs/ratings/vehicle/v/nissan/versa-4-door-sedan
p309
aV/iihs/ratings/vehicle/v/nissan/versa-4-door-hatchback
p310
aV/iihs/ratings/vehicle/v/nissan/versa-note-4-door-hatchback
p311
aV/iihs/ratings/vehicle/v/nissan/xterra-4-door-suv
p312
aV/iihs/ratings/vehicle/v/oldsmobile/alero-4-door-sedan
p313
aV/iihs/ratings/vehicle/v/oldsmobile/aurora-4-door-sedan
p314
aV/iihs/ratings/vehicle/v/oldsmobile/bravada-4-door-suv
p315
aV/iihs/ratings/vehicle/v/oldsmobile/cutlass-4-door-sedan
p316
aV/iihs/ratings/vehicle/v/oldsmobile/intrigue-4-door-sedan
p317
aV/iihs/ratings/vehicle/v/oldsmobile/silhouette-minivan
p318
aV/iihs/ratings/vehicle/v/plymouth/breeze-4-door-sedan
p319
aV/iihs/ratings/vehicle/v/plymouth/grand-voyager-minivan
p320
aV/iihs/ratings/vehicle/v/plymouth/neon-4-door-sedan
p321
aV/iihs/ratings/vehicle/v/pontiac/aztek-4-door-suv
p322
aV/iihs/ratings/vehicle/v/pontiac/bonneville-4-door-sedan
p323
aV/iihs/ratings/vehicle/v/pontiac/g3-4-door-sedan
p324
aV/iihs/ratings/vehicle/v/pontiac/g5-4-door-sedan
p325
aV/iihs/ratings/vehicle/v/pontiac/g6-4-door-sedan
p326
aV/iihs/ratings/vehicle/v/pontiac/g6-2-door-convertible
p327
aV/iihs/ratings/vehicle/v/pontiac/g8-4-door-sedan
p328
aV/iihs/ratings/vehicle/v/pontiac/grand-am-4-door-sedan
p329
aV/iihs/ratings/vehicle/v/pontiac/grand-prix-4-door-sedan
p330
aV/iihs/ratings/vehicle/v/pontiac/montana-sv6-minivan
p331
aV/iihs/ratings/vehicle/v/pontiac/sunfire-4-door-sedan
p332
aV/iihs/ratings/vehicle/v/pontiac/torrent-4-door-suv
p333
aV/iihs/ratings/vehicle/v/pontiac/trans-sport-montana-minivan
p334
aV/iihs/ratings/vehicle/v/pontiac/vibe-4-door-hatchback
p335
aV/iihs/ratings/vehicle/v/saab/900-4-door-sedan
p336
aV/iihs/ratings/vehicle/v/saab/9-2x-4-door-hatchback
p337
aV/iihs/ratings/vehicle/v/saab/9-3-4-door-sedan
p338
aV/iihs/ratings/vehicle/v/saab/9-3-2-door-convertible
p339
aV/iihs/ratings/vehicle/v/saab/9-4x-4-door-suv
p340
aV/iihs/ratings/vehicle/v/saab/9-5-4-door-sedan
p341
aV/iihs/ratings/vehicle/v/saab/9-7x-4-door-suv
p342
aV/iihs/ratings/vehicle/v/saturn/astra-4-door-hatchback
p343
aV/iihs/ratings/vehicle/v/saturn/aura-4-door-sedan
p344
aV/iihs/ratings/vehicle/v/saturn/ion-4-door-sedan
p345
aV/iihs/ratings/vehicle/v/saturn/l-series-4-door-sedan
p346
aV/iihs/ratings/vehicle/v/saturn/outlook-4-door-suv
p347
aV/iihs/ratings/vehicle/v/saturn/relay-minivan
p348
aV/iihs/ratings/vehicle/v/saturn/sl-4-door-sedan
p349
aV/iihs/ratings/vehicle/v/saturn/vue-4-door-suv
p350
aV/iihs/ratings/vehicle/v/subaru/brz-2-door-hatchback
p351
aV/iihs/ratings/vehicle/v/subaru/forester-4-door-suv
p352
aV/iihs/ratings/vehicle/v/subaru/impreza-4-door-sedan
p353
aV/iihs/ratings/vehicle/v/subaru/impreza-4-door-wagon
p354
aV/iihs/ratings/vehicle/v/subaru/impreza-wrx-4-door-sedan
p355
aV/iihs/ratings/vehicle/v/subaru/legacy-4-door-sedan
p356
aV/iihs/ratings/vehicle/v/subaru/outback-4-door-wagon
p357
aV/iihs/ratings/vehicle/v/subaru/tribeca-4-door-suv
p358
aV/iihs/ratings/vehicle/v/subaru/wrx-4-door-sedan
p359
aV/iihs/ratings/vehicle/v/subaru/xv-crosstrek-4-door-wagon
p360
aV/iihs/ratings/vehicle/v/toyota/4runner-4-door-suv
p361
aV/iihs/ratings/vehicle/v/toyota/avalon-4-door-sedan
p362
aV/iihs/ratings/vehicle/v/toyota/camry-4-door-sedan
p363
aV/iihs/ratings/vehicle/v/toyota/camry-solara-2-door-convertible
p364
aV/iihs/ratings/vehicle/v/toyota/corolla-4-door-sedan
p365
aV/iihs/ratings/vehicle/v/toyota/fj-cruiser-4-door-suv
p366
aV/iihs/ratings/vehicle/v/toyota/highlander-4-door-suv
p367
aV/iihs/ratings/vehicle/v/toyota/matrix-4-door-wagon
p368
aV/iihs/ratings/vehicle/v/toyota/previa-minivan
p369
aV/iihs/ratings/vehicle/v/toyota/prius-4-door-hatchback
p370
aV/iihs/ratings/vehicle/v/toyota/prius-c-4-door-hatchback
p371
aV/iihs/ratings/vehicle/v/toyota/prius-v-4-door-wagon
p372
aV/iihs/ratings/vehicle/v/toyota/rav4-4-door-suv
p373
aV/iihs/ratings/vehicle/v/toyota/sienna-minivan
p374
aV/iihs/ratings/vehicle/v/toyota/tacoma-regular-cab-pickup
p375
aV/iihs/ratings/vehicle/v/toyota/tacoma-extended-cab-pickup
p376
aV/iihs/ratings/vehicle/v/toyota/tacoma-crew-cab-pickup
p377
aV/iihs/ratings/vehicle/v/toyota/tundra-extended-cab-pickup
p378
aV/iihs/ratings/vehicle/v/toyota/tundra-crew-cab-pickup
p379
aV/iihs/ratings/vehicle/v/toyota/venza-4-door-suv
p380
aV/iihs/ratings/vehicle/v/toyota/yaris-4-door-sedan
p381
aV/iihs/ratings/vehicle/v/toyota/yaris-4-door-hatchback
p382
aV/iihs/ratings/vehicle/v/toyota/yaris-2-door-hatchback
p383
aV/iihs/ratings/vehicle/v/volkswagen/beetle-2-door-hatchback
p384
aV/iihs/ratings/vehicle/v/volkswagen/cc-4-door-sedan
p385
aV/iihs/ratings/vehicle/v/volkswagen/eos-2-door-convertible
p386
aV/iihs/ratings/vehicle/v/volkswagen/golf-4-door-hatchback
p387
aV/iihs/ratings/vehicle/v/volkswagen/gti-4-door-hatchback
p388
aV/iihs/ratings/vehicle/v/volkswagen/jetta-4-door-sedan
p389
aV/iihs/ratings/vehicle/v/volkswagen/jetta-sportwagen-4-door-wagon
p390
aV/iihs/ratings/vehicle/v/volkswagen/new-beetle-2-door-hatchback
p391
aV/iihs/ratings/vehicle/v/volkswagen/passat-4-door-sedan
p392
aV/iihs/ratings/vehicle/v/volkswagen/rabbit-4-door-hatchback
p393
aV/iihs/ratings/vehicle/v/volkswagen/routan-minivan
p394
aV/iihs/ratings/vehicle/v/volkswagen/tiguan-4-door-suv
p395
aV/iihs/ratings/vehicle/v/volkswagen/touareg-4-door-suv
p396
aV/iihs/ratings/vehicle/v/volvo/850-s70-4-door-sedan
p397
aV/iihs/ratings/vehicle/v/volvo/c30-2-door-hatchback
p398
aV/iihs/ratings/vehicle/v/volvo/c70-2-door-convertible
p399
aV/iihs/ratings/vehicle/v/volvo/s40-4-door-sedan
p400
aV/iihs/ratings/vehicle/v/volvo/s60-4-door-sedan
p401
aV/iihs/ratings/vehicle/v/volvo/s80-4-door-sedan
p402
aV/iihs/ratings/vehicle/v/volvo/v60-4-door-wagon
p403
aV/iihs/ratings/vehicle/v/volvo/xc60-4-door-suv
p404
aV/iihs/ratings/vehicle/v/volvo/xc90-4-door-suv
p405
aV/iihs/ratings/vehicle/v/gmc/acadia-4-door-suv
p406
aV/iihs/ratings/vehicle/v/gmc/canyon-regular-cab-pickup
p407
aV/iihs/ratings/vehicle/v/gmc/canyon-extended-cab-pickup
p408
aV/iihs/ratings/vehicle/v/gmc/canyon-crew-cab-pickup
p409
aV/iihs/ratings/vehicle/v/gmc/envoy-4-door-suv
p410
aV/iihs/ratings/vehicle/v/gmc/jimmy-4-door-suv
p411
aV/iihs/ratings/vehicle/v/gmc/safari-minivan
p412
aV/iihs/ratings/vehicle/v/gmc/sierra-1500-extended-cab-pickup
p413
aV/iihs/ratings/vehicle/v/gmc/sierra-1500-crew-cab-pickup
p414
aV/iihs/ratings/vehicle/v/gmc/sierra-1500-classic-extended-cab-pickup
p415
aV/iihs/ratings/vehicle/v/gmc/sonoma-regular-cab-pickup
p416
aV/iihs/ratings/vehicle/v/gmc/terrain-4-door-suv
p417
aV/iihs/ratings/vehicle/v/gmc/yukon-xl-4-door-suv
p418
aV/iihs/ratings/vehicle/v/scion/fr-s-2-door-hatchback
p419
aV/iihs/ratings/vehicle/v/scion/iq-2-door-hatchback
p420
aV/iihs/ratings/vehicle/v/scion/tc-2-door-hatchback
p421
aV/iihs/ratings/vehicle/v/scion/xb-4-door-wagon
p422
aV/iihs/ratings/vehicle/v/scion/xd-4-door-hatchback
p423
aV/iihs/ratings/vehicle/v/hummer/h3-4-door-suv
p424
aV/iihs/ratings/vehicle/v/smart/fortwo-2-door-hatchback
p425
aV/iihs/ratings/vehicle/v/fiat/500-2-door-hatchback
p426
aV/iihs/ratings/vehicle/v/fiat/500l-4-door-hatchback
p427
aV/iihs/ratings/vehicle/v/maserati/ghibli-4-door-sedan
p428
a.