(lp0
S'http://www.cars.com/for-sale/searchresults.action?feedSegId=28705&rpp=250&sf2Nm=price&requestorTrackingInfo=RTB_SEARCH&sf1Nm=actualPhotoCount&sf2Dir=DESC&PMmt=1-1-0&zc=48104&rd=99999&mdId=21189&mkId=20030&sf1Dir=DESC&searchSource=UTILITY&crSrtFlds=feedSegId&pgId=2102&rn=250'
p1
aS'http://www.cars.com/for-sale/searchresults.action?feedSegId=28705&rpp=250&sf2Nm=price&requestorTrackingInfo=RTB_SEARCH&sf1Nm=actualPhotoCount&sf2Dir=DESC&PMmt=1-1-0&zc=48104&rd=99999&mdId=21223&mkId=20074&sf1Dir=DESC&searchSource=UTILITY&crSrtFlds=feedSegId&pgId=2102&rn=250'
p2
aS'http://www.cars.com/for-sale/searchresults.action?PMmt=1-0-0&crSrtFlds=feedSegId&feedSegId=28705&isDealerGrouping=false&rpp=250&sf1Dir=DESC&sf1Nm=actualPhotoCount&sf2Dir=DESC&sf2Nm=price&zc=48104&rd=99999&mkId=20053&mdId=20842&searchSource=GN_REFINEMENT'
p3
aS'http://www.cars.com/for-sale/searchresults.action?feedSegId=28705&rpp=250&photoId=46724&sf2Nm=price&requestorTrackingInfo=RTB_SEARCH&sf1Nm=modelYear&sf2Dir=DESC&stkTypId=28881&PMmt=1-1-0&zc=48105&rd=100000&mdId=21930&mkId=20028&sf1Dir=DESC&searchSource=UTILITY&crSrtFlds=stkTypId-feedSegId-mkId&pgId=2102&rn=1250'
p4
aS'http://www.cars.com/for-sale/searchresults.action?PMmt=1-0-0&crSrtFlds=feedSegId&feedSegId=28705&isDealerGrouping=false&rpp=250&sf1Dir=DESC&sf1Nm=actualPhotoCount&sf2Dir=DESC&sf2Nm=price&zc=48104&rd=99999&mkId=20053&mdId=21692&searchSource=GN_REFINEMENT'
p5
aS'http://www.cars.com/for-sale/searchresults.action?PMmt=1-1-0&crSrtFlds=stkTypId-feedSegId-mkId-mdId&feedSegId=28705&isDealerGrouping=false&rpp=100&sf1Dir=ASC&sf1Nm=modelYear&sf2Dir=DESC&sf2Nm=price&zc=48105&rd=100000&stkTypId=28881&mkId=20077&mdId=20626&photoId=46724&yrId=20195&yrId=20139&yrId=20194&yrId=20138&yrId=20193&yrId=20195&searchSource=GN_REFINEMENT'
p6
aS'http://www.cars.com/for-sale/searchresults.action?PMmt=1-0-0&crSrtFlds=stkTypId-feedSegId-mkId&feedSegId=28705&isDealerGrouping=false&rpp=50&sf1Dir=DESC&sf1Nm=price&sf2Dir=ASC&sf2Nm=miles&zc=48105&rd=100000&stkTypId=28881&mkId=20089&photoId=46724&mdId=27321&searchSource=GN_REFINEMENT'
p7
aS'http://www.cars.com/for-sale/searchresults.action?PMmt=1-1-0&crSrtFlds=feedSegId&feedSegId=28705&isDealerGrouping=false&rpp=250&sf1Dir=DESC&sf1Nm=actualPhotoCount&sf2Dir=DESC&sf2Nm=price&zc=48104&rd=99999&mkId=20053&mdId=22124&yrId=20128&yrId=20130&yrId=20187&yrId=20132&yrId=20133&yrId=20189&yrId=20134&yrId=20190&yrId=20135&yrId=20136&yrId=20192&yrId=20128&searchSource=GN_REFINEMENT'
p8
aS'http://www.cars.com/for-sale/searchresults.action?PMmt=1-3-0&crSrtFlds=feedSegId&feedSegId=28705&isDealerGrouping=false&rpp=250&sf1Dir=DESC&sf1Nm=actualPhotoCount&sf2Dir=DESC&sf2Nm=price&zc=48104&rd=99999&mkId=20015&mdId=21105&mdId=21087&mdId=21107&mdId=21105&yrId=20144&yrId=20200&yrId=20145&yrId=20201&yrId=20144&searchSource=GN_REFINEMENT'
p9
aS'http://www.cars.com/for-sale/searchresults.action?PMmt=1-1-0&crSrtFlds=feedSegId&feedSegId=28705&isDealerGrouping=false&rpp=100&sf1Dir=DESC&sf1Nm=actualPhotoCount&sf2Dir=DESC&sf2Nm=price&zc=48104&rd=99999&mkId=20088&mdId=21933&yrId=20197&yrId=20142&yrId=20198&yrId=20143&yrId=20199&yrId=20144&yrId=20200&yrId=20197&searchSource=GN_REFINEMENT'
p10
aS'http://www.cars.com/for-sale/searchresults.action?PMmt=1-0-0&crSrtFlds=feedSegId&feedSegId=28705&isDealerGrouping=false&rpp=250&sf1Dir=DESC&sf1Nm=actualPhotoCount&sf2Dir=DESC&sf2Nm=price&zc=48104&rd=99999&mkId=20074&mdId=21706&searchSource=GN_REFINEMENT'
p11
aS'http://www.cars.com/for-sale/searchresults.action?feedSegId=28705&rpp=100&sf2Nm=price&requestorTrackingInfo=RTB_SEARCH&sf1Nm=actualPhotoCount&sf2Dir=DESC&PMmt=1-1-0&zc=48104&rd=99999&mdId=21444&mkId=20088&sf1Dir=DESC&searchSource=UTILITY&crSrtFlds=feedSegId&pgId=2102&rn=100'
p12
aS'http://www.cars.com/for-sale/searchresults.action?feedSegId=28705&rpp=250&photoId=46724&sf2Nm=miles&requestorTrackingInfo=RTB_SEARCH&sf1Nm=price&sf2Dir=ASC&stkTypId=28881&PMmt=1-3-0&zc=48105&rd=100000&mdId=21247&mdId=21197&mdId=21814&mkId=20072&sf1Dir=DESC&searchSource=UTILITY&crSrtFlds=stkTypId-feedSegId-mkId&pgId=2102&rn=250'
p13
aS'http://www.cars.com/for-sale/searchresults.action?PMmt=1-0-0&crSrtFlds=feedSegId&feedSegId=28705&isDealerGrouping=false&rpp=250&sf1Dir=DESC&sf1Nm=actualPhotoCount&sf2Dir=DESC&sf2Nm=price&zc=48104&rd=99999&mkId=20074&mdId=21223&searchSource=GN_REFINEMENT'
p14
aS'http://www.cars.com/for-sale/searchresults.action?feedSegId=28705&rpp=250&photoId=46724&requestorTrackingInfo=RTB_SEARCH&PMmt=1-1-0&zc=48105&rd=100000&bsId=20203&mdId=20775&mkId=20028&searchSource=SORT_BLENDED&crSrtFlds=feedSegId-mkId&pgId=2102&sf1Nm=modelYear&sf1Dir=ASC&sf2Nm=price&sf2Dir=DESC'
p15
aS'http://www.cars.com/for-sale/searchresults.action?PMmt=1-2-0&crSrtFlds=stkTypId-feedSegId-mkId&feedSegId=28705&isDealerGrouping=false&rpp=100&sf1Dir=DESC&sf1Nm=modelYear&sf2Dir=DESC&sf2Nm=price&zc=48105&rd=99999&stkTypId=28881&mkId=20052&mdId=47563&mdId=20787&mdId=47563&photoId=46724&bsId=20203&bsId=20216&bsId=20203&searchSource=GN_REFINEMENT'
p16
aS'http://www.cars.com/for-sale/searchresults.action?feedSegId=28705&rpp=100&sf2Nm=price&requestorTrackingInfo=RTB_SEARCH&yrId=51683&yrId=56007&yrId=20145&yrId=34923&yrId=47272&yrId=27381&yrId=20201&yrId=20200&sf1Nm=actualPhotoCount&sf2Dir=DESC&PMmt=1-1-0&zc=48104&rd=99999&mdId=21381&mkId=20088&sf1Dir=DESC&searchSource=UTILITY&crSrtFlds=feedSegId&pgId=2102&rn=100'
p17
aS'http://www.cars.com/for-sale/searchresults.action?PMmt=1-1-0&crSrtFlds=feedSegId&feedSegId=28705&isDealerGrouping=false&rpp=250&sf1Dir=DESC&sf1Nm=actualPhotoCount&sf2Dir=DESC&sf2Nm=price&zc=48104&rd=99999&mkId=20028&mdId=21906&yrId=20188&yrId=20133&yrId=20189&yrId=20190&yrId=20134&yrId=20135&yrId=20191&yrId=20136&yrId=20192&yrId=20188&searchSource=GN_REFINEMENT'
p18
aS'http://www.cars.com/for-sale/searchresults.action?feedSegId=28705&sf2Nm=price&requestorTrackingInfo=RTB_SEARCH&sf1Nm=modelYear&sf2Dir=DESC&stkTypId=28881&PMmt=1-2-0&zc=48105&rd=100000&mdId=22349&mdId=21857&mkId=20044&sf1Dir=ASC&searchSource=UTILITY&crSrtFlds=stkTypId-feedSegId-mkId&pgId=2102&rpp=250'
p19
aS'http://www.cars.com/for-sale/searchresults.action?PMmt=1-0-0&crSrtFlds=feedSegId&feedSegId=28705&isDealerGrouping=false&rpp=250&sf1Dir=DESC&sf1Nm=actualPhotoCount&sf2Dir=DESC&sf2Nm=price&zc=48104&rd=99999&yrId=20200&yrId=20144&yrId=20199&yrId=20143&yrId=20200&mkId=20073&mdId=21446&searchSource=GN_REFINEMENT'
p20
aS'http://www.cars.com/for-sale/searchresults.action?PMmt=0-0-0&crSrtFlds=feedSegId&feedSegId=28705&isDealerGrouping=false&rpp=250&sf1Dir=DESC&sf1Nm=actualPhotoCount&sf2Dir=DESC&sf2Nm=price&zc=48104&rd=99999&mdId=21134&searchSource=GN_REFINEMENT'
p21
aS'http://www.cars.com/for-sale/searchresults.action?PMmt=1-0-0&crSrtFlds=stkTypId-feedSegId-mkId&feedSegId=28705&isDealerGrouping=false&rpp=250&sf1Dir=DESC&sf1Nm=price&sf2Dir=ASC&sf2Nm=miles&zc=48105&rd=100000&stkTypId=28881&mkId=20081&yrId=39723&yrId=34923&yrId=27381&yrId=20201&yrId=39723&mdId=20819&searchSource=GN_REFINEMENT'
p22
aS'http://www.cars.com/for-sale/searchresults.action?feedSegId=28705&rpp=250&sf2Nm=price&requestorTrackingInfo=RTB_SEARCH&yrId=20145&yrId=34923&yrId=27381&yrId=20201&yrId=20200&sf1Nm=actualPhotoCount&sf2Dir=DESC&PMmt=1-1-0&zc=48104&rd=99999&mdId=21970&mkId=20068&sf1Dir=DESC&searchSource=UTILITY&crSrtFlds=feedSegId&pgId=2102&rn=250'
p23
aS'http://www.cars.com/for-sale/searchresults.action?PMmt=1-0-0&crSrtFlds=feedSegId&feedSegId=28705&isDealerGrouping=false&rpp=250&sf1Dir=DESC&sf1Nm=actualPhotoCount&sf2Dir=DESC&sf2Nm=price&zc=48104&rd=99999&mkId=20030&mdId=21854&searchSource=GN_REFINEMENT'
p24
aS'http://www.cars.com/for-sale/searchresults.action?PMmt=1-2-0&crSrtFlds=feedSegId&feedSegId=28705&isDealerGrouping=false&rpp=250&sf1Dir=DESC&sf1Nm=actualPhotoCount&sf2Dir=DESC&sf2Nm=price&zc=48104&rd=99999&mkId=20030&mdId=21742&mdId=35966&mdId=21742&yrId=39723&yrId=34923&yrId=27381&yrId=39723&searchSource=GN_REFINEMENT'
p25
aS'http://www.cars.com/for-sale/searchresults.action?PMmt=1-1-0&crSrtFlds=feedSegId&feedSegId=28705&isDealerGrouping=false&rpp=250&sf1Dir=DESC&sf1Nm=actualPhotoCount&sf2Dir=DESC&sf2Nm=price&zc=48104&rd=99999&mkId=20053&mdId=35026&yrId=47272&yrId=39723&yrId=47272&searchSource=GN_REFINEMENT'
p26
aS'http://www.cars.com/for-sale/searchresults.action?feedSegId=28705&rpp=250&sf2Nm=price&requestorTrackingInfo=RTB_SEARCH&sf1Nm=actualPhotoCount&sf2Dir=DESC&PMmt=1-1-0&zc=48104&rd=99999&mdId=21706&mkId=20074&sf1Dir=DESC&searchSource=UTILITY&crSrtFlds=feedSegId&pgId=2102&rn=500'
p27
aS'http://www.cars.com/for-sale/searchresults.action?PMmt=1-0-0&crSrtFlds=feedSegId&feedSegId=28705&isDealerGrouping=false&rpp=250&sf1Dir=DESC&sf1Nm=actualPhotoCount&sf2Dir=DESC&sf2Nm=price&zc=48104&rd=99999&mkId=20077&mdId=28283&searchSource=GN_REFINEMENT'
p28
aS'http://www.cars.com/for-sale/searchresults.action?feedSegId=28705&rpp=250&sf2Nm=price&requestorTrackingInfo=RTB_SEARCH&yrId=20199&yrId=20144&yrId=20145&yrId=27381&yrId=20143&yrId=20201&yrId=20200&sf1Nm=actualPhotoCount&sf2Dir=DESC&PMmt=1-1-0&zc=48104&rd=99999&mdId=20856&mkId=20053&sf1Dir=DESC&searchSource=UTILITY&crSrtFlds=feedSegId&pgId=2102&rn=500'
p29
aS'http://www.cars.com/for-sale/searchresults.action?feedSegId=28705&rpp=250&sf2Nm=price&requestorTrackingInfo=RTB_SEARCH&sf1Nm=actualPhotoCount&sf2Dir=DESC&PMmt=1-0-0&zc=48104&rd=99999&mkId=20037&sf1Dir=DESC&searchSource=UTILITY&crSrtFlds=feedSegId&pgId=2102&rn=750'
p30
aS'http://www.cars.com/for-sale/searchresults.action?feedSegId=28705&rpp=250&sf2Nm=price&requestorTrackingInfo=RTB_SEARCH&sf1Nm=actualPhotoCount&sf2Dir=DESC&PMmt=1-0-0&zc=48104&rd=99999&mkId=20037&sf1Dir=DESC&searchSource=UTILITY&crSrtFlds=feedSegId&pgId=2102&rn=500'
p31
aS'http://www.cars.com/for-sale/searchresults.action?PMmt=1-1-0&crSrtFlds=feedSegId&feedSegId=28705&isDealerGrouping=false&rpp=100&sf1Dir=DESC&sf1Nm=actualPhotoCount&sf2Dir=DESC&sf2Nm=price&zc=48104&rd=99999&mkId=20041&mdId=21378&yrId=20193&yrId=20138&yrId=20194&yrId=20139&yrId=20195&yrId=20140&yrId=20196&yrId=20193&searchSource=GN_REFINEMENT'
p32
aS'http://www.cars.com/for-sale/used/honda/civic/_/N-ma9Zfg1Zg2fZm5d?feedSegId=28705&rpp=250&sf2Nm=price&requestorTrackingInfo=RTB_SEARCH&sf1Nm=modelYear&sf2Dir=DESC&stkTypId=28881&PMmt=1-1-0&zc=48105&rd=100000&mdId=20823&mkId=20017&sf1Dir=ASC&searchSource=UTILITY&crSrtFlds=stkTypId-feedSegId-mkId-mdId&pgId=2102&rn=250'
p33
aS'http://www.cars.com/for-sale/searchresults.action?PMmt=1-1-0&crSrtFlds=feedSegId&feedSegId=28705&isDealerGrouping=false&rpp=250&sf1Dir=DESC&sf1Nm=modelYear&sf2Dir=DESC&sf2Nm=price&zc=48105&rd=100000&mkId=20012&mdId=20840&photoId=46724&stkTypId=28881&searchSource=GN_REFINEMENT'
p34
aS'http://www.cars.com/for-sale/searchresults.action?feedSegId=28705&photoId=46724&sf2Nm=miles&requestorTrackingInfo=RTB_SEARCH&sf1Nm=price&sf2Dir=ASC&PMmt=1-1-0&zc=48105&rd=100000&bsId=20203&mdId=21906&mkId=20028&sf1Dir=DESC&searchSource=UTILITY&crSrtFlds=feedSegId-mkId-mdId&pgId=2102&rpp=250'
p35
aS'http://www.cars.com/for-sale/searchresults.action?PMmt=1-0-0&crSrtFlds=feedSegId&feedSegId=28705&isDealerGrouping=false&rpp=250&sf1Dir=DESC&sf1Nm=actualPhotoCount&sf2Dir=DESC&sf2Nm=price&zc=48104&rd=99999&mkId=20030&mdId=21060&searchSource=GN_REFINEMENT'
p36
a.