(lp0
S'http://www.cars.com/for-sale/searchresults.action?PMmt=1-0-0&crSrtFlds=feedSegId&feedSegId=28705&isDealerGrouping=false&rpp=250&sf1Dir=DESC&sf1Nm=actualPhotoCount&sf2Dir=DESC&sf2Nm=price&zc=48104&rd=99999&mkId=20030&mdId=21466&searchSource=GN_REFINEMENT'
p1
aS'http://www.cars.com/for-sale/searchresults.action?PMmt=1-4-0&crSrtFlds=feedSegId&feedSegId=28705&isDealerGrouping=false&rpp=250&sf1Dir=DESC&sf1Nm=actualPhotoCount&sf2Dir=DESC&sf2Nm=price&zc=48104&rd=99999&mkId=20070&mdId=21337&mdId=21363&mdId=21339&mdId=21364&mdId=21337&yrId=20197&yrId=20142&yrId=20197&searchSource=GN_REFINEMENT'
p2
a.