(lp0
S'http://www.cars.com/for-sale/searchresults.action?feedSegId=28705&rpp=100&sf2Nm=price&requestorTrackingInfo=RTB_SEARCH&yrId=20198&yrId=20197&yrId=20196&yrId=20195&yrId=20194&yrId=20139&yrId=20143&yrId=20142&yrId=20141&yrId=20140&sf1Nm=actualPhotoCount&sf2Dir=DESC&PMmt=1-1-0&zc=48104&rd=99999&bsId=20216&mdId=21758&mkId=20089&sf1Dir=DESC&searchSource=UTILITY&crSrtFlds=feedSegId&pgId=2102&rn=100'
p1
aS'http://www.cars.com/for-sale/searchresults.action?feedSegId=28705&rpp=100&sf2Nm=price&requestorTrackingInfo=RTB_SEARCH&yrId=20145&yrId=20196&yrId=20195&yrId=34923&yrId=20194&yrId=20193&yrId=20139&yrId=27381&yrId=20138&yrId=20201&yrId=20141&yrId=20140&sf1Nm=actualPhotoCount&sf2Dir=DESC&PMmt=1-2-0&zc=48104&rd=99999&mdId=51803&mdId=21295&mkId=20041&sf1Dir=DESC&searchSource=UTILITY&crSrtFlds=feedSegId&pgId=2102&rn=100'
p2
aS'http://www.cars.com/for-sale/searchresults.action?PMmt=1-0-0&crSrtFlds=feedSegId&feedSegId=28705&isDealerGrouping=false&rpp=250&sf1Dir=DESC&sf1Nm=actualPhotoCount&sf2Dir=DESC&sf2Nm=price&zc=48104&rd=99999&yrId=51683&yrId=47272&yrId=39723&yrId=34923&yrId=27381&yrId=20201&yrId=51683&mkId=20070&mdId=27664&mdId=21787&mdId=27664&searchSource=GN_REFINEMENT'
p3
aS'http://www.cars.com/for-sale/searchresults.action?PMmt=1-2-0&crSrtFlds=feedSegId&feedSegId=28705&isDealerGrouping=false&rpp=250&sf1Dir=DESC&sf1Nm=actualPhotoCount&sf2Dir=DESC&sf2Nm=price&zc=48104&rd=99999&mkId=20005&mdId=22395&mdId=22334&mdId=22395&yrId=20198&yrId=20143&yrId=20199&yrId=20144&yrId=20200&yrId=20145&yrId=20198&searchSource=GN_REFINEMENT'
p4
aS'http://www.cars.com/for-sale/searchresults.action?PMmt=1-2-0&crSrtFlds=feedSegId&feedSegId=28705&isDealerGrouping=false&rpp=250&sf1Dir=DESC&sf1Nm=actualPhotoCount&sf2Dir=DESC&sf2Nm=price&zc=48104&rd=99999&mkId=20030&mdId=21742&mdId=35966&mdId=21742&yrId=20198&yrId=20143&yrId=20199&yrId=20144&yrId=20200&yrId=20198&searchSource=GN_REFINEMENT'
p5
aS'http://www.cars.com/for-sale/searchresults.action?feedSegId=28705&rpp=250&photoId=46724&sf2Nm=price&requestorTrackingInfo=RTB_SEARCH&sf1Nm=modelYear&sf2Dir=DESC&stkTypId=28881&PMmt=1-1-0&zc=48105&rd=100000&mdId=21177&mkId=20028&sf1Dir=DESC&searchSource=UTILITY&crSrtFlds=stkTypId-feedSegId-mkId&pgId=2102&rn=250'
p6
aS'http://www.cars.com/for-sale/searchresults.action?PMmt=1-1-0&crSrtFlds=stkTypId-feedSegId-mkId-mdId&feedSegId=28705&isDealerGrouping=false&rpp=50&sf1Dir=DESC&sf1Nm=price&sf2Dir=ASC&sf2Nm=miles&zc=48105&rd=100000&stkTypId=28881&mkId=20081&mdId=20567&yrId=20138&yrId=20193&yrId=20137&yrId=20192&yrId=20136&yrId=20191&yrId=20138&bsId=20202&searchSource=GN_REFINEMENT'
p7
aS'http://www.cars.com/for-sale/searchresults.action?feedSegId=28705&rpp=250&photoId=46724&sf2Nm=miles&requestorTrackingInfo=RTB_SEARCH&sf1Nm=price&sf2Dir=ASC&stkTypId=28881&PMmt=1-3-0&zc=48105&rd=100000&mdId=21247&mdId=21197&mdId=21814&mkId=20072&sf1Dir=DESC&searchSource=UTILITY&crSrtFlds=stkTypId-feedSegId-mkId&pgId=2102&rn=750'
p8
aS'http://www.cars.com/for-sale/searchresults.action?feedSegId=28705&rpp=250&sf2Nm=price&requestorTrackingInfo=RTB_SEARCH&sf1Nm=actualPhotoCount&sf2Dir=DESC&PMmt=1-1-0&zc=48104&rd=99999&bsId=20203&mdId=22264&mkId=20064&sf1Dir=DESC&searchSource=UTILITY&crSrtFlds=feedSegId&pgId=2102&rn=250'
p9
aS'http://www.cars.com/for-sale/searchresults.action?PMmt=1-0-0&crSrtFlds=feedSegId&feedSegId=28705&isDealerGrouping=false&rpp=250&sf1Dir=DESC&sf1Nm=actualPhotoCount&sf2Dir=DESC&sf2Nm=price&zc=48104&rd=99999&mkId=20030&mdId=21189&searchSource=GN_REFINEMENT'
p10
aS'http://www.cars.com/for-sale/searchresults.action?PMmt=1-1-0&crSrtFlds=stkTypId-feedSegId-mkId&feedSegId=28705&isDealerGrouping=false&rpp=250&sf1Dir=DESC&sf1Nm=price&sf2Dir=ASC&sf2Nm=miles&zc=48105&rd=100000&stkTypId=28881&mkId=20042&mdId=21140&bsId=20216&searchSource=GN_REFINEMENT'
p11
aS'http://www.cars.com/for-sale/searchresults.action?feedSegId=28705&rpp=250&sf2Nm=price&requestorTrackingInfo=RTB_SEARCH&sf1Nm=actualPhotoCount&sf2Dir=DESC&PMmt=1-1-0&zc=48104&rd=99999&mdId=21037&mkId=20030&sf1Dir=DESC&searchSource=UTILITY&crSrtFlds=feedSegId&pgId=2102&rn=250'
p12
aS'http://www.cars.com/for-sale/searchresults.action?PMmt=1-1-0&crSrtFlds=stkTypId-feedSegId-mkId&feedSegId=28705&isDealerGrouping=false&rpp=250&sf1Dir=DESC&sf1Nm=price&sf2Dir=ASC&sf2Nm=miles&zc=48105&rd=100000&stkTypId=28881&mkId=20042&mdId=21893&bsId=20206&searchSource=GN_REFINEMENT'
p13
aS'http://www.cars.com/for-sale/searchresults.action?PMmt=0-0-0&crSrtFlds=feedSegId&feedSegId=28705&isDealerGrouping=false&rpp=250&sf1Dir=DESC&sf1Nm=actualPhotoCount&sf2Dir=DESC&sf2Nm=price&zc=48104&rd=99999&mkId=33583&searchSource=GN_REFINEMENT'
p14
aS'http://www.cars.com/for-sale/searchresults.action?feedSegId=28705&rpp=250&photoId=46724&sf2Nm=price&requestorTrackingInfo=RTB_SEARCH&sf1Nm=modelYear&sf2Dir=DESC&stkTypId=28881&PMmt=1-1-0&zc=48105&rd=100000&mdId=21019&mkId=20012&sf1Dir=ASC&searchSource=UTILITY&crSrtFlds=feedSegId&pgId=2102&rn=1000'
p15
aS'http://www.cars.com/for-sale/searchresults.action?PMmt=1-1-0&crSrtFlds=feedSegId-mdId&feedSegId=28705&isDealerGrouping=false&rpp=250&sf1Dir=DESC&sf1Nm=actualPhotoCount&sf2Dir=DESC&sf2Nm=price&zc=48104&rd=99999&mdId=22090&mkId=20068&yrId=20141&yrId=20197&yrId=20142&yrId=20198&yrId=20141&searchSource=GN_REFINEMENT'
p16
aS'http://www.cars.com/for-sale/searchresults.action?PMmt=1-0-0&crSrtFlds=feedSegId&feedSegId=28705&isDealerGrouping=false&rpp=250&sf1Dir=DESC&sf1Nm=actualPhotoCount&sf2Dir=DESC&sf2Nm=price&zc=48104&rd=99999&yrId=58487&yrId=56007&yrId=51683&yrId=47272&yrId=58487&mkId=20005&mdId=20444&mdId=54409&mdId=54812&mdId=20445&mdId=20444&searchSource=GN_REFINEMENT'
p17
aS'http://www.cars.com/for-sale/searchresults.action?PMmt=1-0-0&crSrtFlds=feedSegId&feedSegId=28705&isDealerGrouping=false&rpp=250&sf1Dir=DESC&sf1Nm=actualPhotoCount&sf2Dir=DESC&sf2Nm=price&zc=48104&rd=99999&yrId=51683&yrId=47272&yrId=51683&mkId=20049&mdId=21759&searchSource=GN_REFINEMENT'
p18
aS'http://www.cars.com/for-sale/searchresults.action?PMmt=1-1-0&crSrtFlds=feedSegId&feedSegId=28705&isDealerGrouping=false&rpp=250&sf1Dir=DESC&sf1Nm=actualPhotoCount&sf2Dir=DESC&sf2Nm=price&zc=48104&rd=99999&mkId=20015&mdId=21095&yrId=20190&yrId=20135&yrId=20191&yrId=20136&yrId=20192&yrId=20190&searchSource=GN_REFINEMENT'
p19
aS'http://www.cars.com/for-sale/searchresults.action?feedSegId=28705&rpp=250&sf2Nm=price&requestorTrackingInfo=RTB_SEARCH&sf1Nm=actualPhotoCount&sf2Dir=DESC&PMmt=1-1-0&zc=48104&rd=99999&mdId=21247&mkId=20072&sf1Dir=DESC&searchSource=UTILITY&crSrtFlds=feedSegId&pgId=2102&rn=500'
p20
aS'http://www.cars.com/for-sale/searchresults.action?feedSegId=28705&rpp=250&photoId=46724&requestorTrackingInfo=RTB_SEARCH&stkTypId=28881&PMmt=1-1-0&zc=48105&rd=100000&mdId=20840&mkId=20012&searchSource=SORT_USED&crSrtFlds=feedSegId&pgId=2102&sf1Nm=modelYear&sf1Dir=ASC&sf2Nm=price&sf2Dir=DESC'
p21
aS'http://www.cars.com/for-sale/searchresults.action?PMmt=1-0-0&crSrtFlds=stkTypId-feedSegId-mkId&feedSegId=28705&isDealerGrouping=false&rpp=50&sf1Dir=DESC&sf1Nm=price&sf2Dir=ASC&sf2Nm=miles&zc=48105&rd=100000&stkTypId=28881&mkId=20089&photoId=46724&mdId=21285&searchSource=GN_REFINEMENT'
p22
aS'http://www.cars.com/for-sale/searchresults.action?PMmt=1-1-0&crSrtFlds=feedSegId&feedSegId=28705&isDealerGrouping=false&rpp=100&sf1Dir=DESC&sf1Nm=actualPhotoCount&sf2Dir=DESC&sf2Nm=price&zc=48104&rd=99999&mkId=20088&mdId=20800&yrId=39723&yrId=56007&yrId=58487&yrId=51683&yrId=47272&yrId=39723&searchSource=GN_REFINEMENT'
p23
aS'http://www.cars.com/for-sale/used/honda/civic/_/N-ma9Zfg1Zg2fZm5d?feedSegId=28705&rpp=250&sf2Nm=price&requestorTrackingInfo=RTB_SEARCH&sf1Nm=modelYear&sf2Dir=DESC&stkTypId=28881&PMmt=1-1-0&zc=48105&rd=100000&mdId=20823&mkId=20017&sf1Dir=ASC&searchSource=UTILITY&crSrtFlds=stkTypId-feedSegId-mkId-mdId&pgId=2102&rn=0'
p24
aS'http://www.cars.com/for-sale/searchresults.action?feedSegId=28705&photoId=46724&sf2Nm=price&requestorTrackingInfo=RTB_SEARCH&sf1Nm=modelYear&sf2Dir=DESC&stkTypId=28881&PMmt=1-1-0&zc=48105&rd=100000&mdId=20758&mkId=20028&sf1Dir=ASC&searchSource=UTILITY&crSrtFlds=stkTypId-feedSegId-mkId-mdId&pgId=2102&rpp=250'
p25
aS'http://www.cars.com/for-sale/searchresults.action?PMmt=1-1-0&crSrtFlds=stkTypId-feedSegId-mkId&feedSegId=28705&isDealerGrouping=false&rpp=50&sf1Dir=ASC&sf1Nm=modelYear&sf2Dir=DESC&sf2Nm=price&zc=48105&rd=100000&stkTypId=28881&mkId=20089&mdId=21285&photoId=46724&yrId=20136&yrId=20192&yrId=20139&yrId=20195&yrId=20140&yrId=20136&searchSource=GN_REFINEMENT'
p26
aS'http://www.cars.com/for-sale/searchresults.action?PMmt=1-6-0&crSrtFlds=feedSegId&feedSegId=28705&isDealerGrouping=false&rpp=250&sf1Dir=DESC&sf1Nm=actualPhotoCount&sf2Dir=DESC&sf2Nm=price&zc=48104&rd=99999&mkId=20070&mdId=21168&mdId=21196&mdId=21170&mdId=21198&mdId=21172&mdId=21174&mdId=21168&yrId=20199&yrId=20144&yrId=20200&yrId=20199&searchSource=GN_REFINEMENT'
p27
aS'http://www.cars.com/for-sale/searchresults.action?PMmt=1-1-0&crSrtFlds=feedSegId&feedSegId=28705&isDealerGrouping=false&rpp=250&sf1Dir=DESC&sf1Nm=actualPhotoCount&sf2Dir=DESC&sf2Nm=price&zc=48104&rd=99999&mkId=20077&mdId=21710&yrId=27381&yrId=34923&yrId=39723&yrId=47272&yrId=27381&searchSource=GN_REFINEMENT'
p28
aS'http://www.cars.com/for-sale/searchresults.action?PMmt=1-0-0&crSrtFlds=feedSegId&feedSegId=28705&isDealerGrouping=false&rpp=250&sf1Dir=DESC&sf1Nm=actualPhotoCount&sf2Dir=DESC&sf2Nm=price&zc=48104&rd=99999&mkId=20030&mdId=21037&searchSource=GN_REFINEMENT'
p29
aS'http://www.cars.com/for-sale/searchresults.action?PMmt=1-1-0&crSrtFlds=stkTypId-feedSegId-mkId-mdId&feedSegId=28705&isDealerGrouping=false&rpp=100&sf1Dir=DESC&sf1Nm=price&sf2Dir=ASC&sf2Nm=miles&zc=48105&rd=100000&stkTypId=28881&mkId=20077&mdId=20626&photoId=46724&searchSource=GN_REFINEMENT'
p30
aS'http://www.cars.com/for-sale/searchresults.action?PMmt=1-0-0&crSrtFlds=stkTypId-feedSegId-mkId&feedSegId=28705&isDealerGrouping=false&rpp=250&sf1Dir=DESC&sf1Nm=modelYear&sf2Dir=DESC&sf2Nm=price&zc=48105&rd=100000&stkTypId=28881&mkId=20028&photoId=46724&mdId=21177&searchSource=GN_REFINEMENT'
p31
aS'http://www.cars.com/for-sale/searchresults.action?PMmt=1-1-0&crSrtFlds=feedSegId&feedSegId=28705&isDealerGrouping=false&rpp=250&sf1Dir=DESC&sf1Nm=actualPhotoCount&sf2Dir=DESC&sf2Nm=price&zc=48104&rd=99999&mkId=20077&mdId=21931&yrId=20145&yrId=34923&yrId=27381&yrId=20201&yrId=20145&searchSource=GN_REFINEMENT'
p32
aS'http://www.cars.com/for-sale/searchresults.action?feedSegId=28705&rpp=100&sf2Nm=price&requestorTrackingInfo=RTB_SEARCH&yrId=51683&yrId=56007&yrId=39723&yrId=47272&sf1Nm=actualPhotoCount&sf2Dir=DESC&PMmt=1-1-0&zc=48104&rd=99999&mdId=21916&mkId=20044&sf1Dir=DESC&searchSource=UTILITY&crSrtFlds=feedSegId-mkId&pgId=2102&rn=100'
p33
aS'http://www.cars.com/for-sale/searchresults.action?PMmt=1-1-0&crSrtFlds=feedSegId&feedSegId=28705&isDealerGrouping=false&rpp=100&sf1Dir=DESC&sf1Nm=actualPhotoCount&sf2Dir=DESC&sf2Nm=price&zc=48104&rd=99999&mkId=20089&mdId=21285&yrId=20196&yrId=20141&yrId=20197&yrId=20142&yrId=20198&yrId=20143&yrId=20199&yrId=20144&yrId=20196&searchSource=GN_REFINEMENT'
p34
aS'http://www.cars.com/for-sale/searchresults.action?PMmt=1-1-0&crSrtFlds=feedSegId&feedSegId=28705&isDealerGrouping=false&rpp=250&sf1Dir=DESC&sf1Nm=actualPhotoCount&sf2Dir=DESC&sf2Nm=price&zc=48104&rd=99999&mkId=20064&mdId=20666&yrId=39723&yrId=47272&yrId=51683&yrId=56007&yrId=39723&searchSource=GN_REFINEMENT'
p35
aS'http://www.cars.com/for-sale/searchresults.action?PMmt=1-0-0&crSrtFlds=feedSegId&feedSegId=28705&isDealerGrouping=false&rpp=250&sf1Dir=DESC&sf1Nm=actualPhotoCount&sf2Dir=DESC&sf2Nm=price&zc=48104&rd=99999&mkId=20038&mdId=20566&searchSource=GN_REFINEMENT'
p36
a.