(lp0
S'http://www.cars.com/for-sale/searchresults.action?PMmt=1-1-0&crSrtFlds=feedSegId&feedSegId=28705&isDealerGrouping=false&rpp=100&sf1Dir=DESC&sf1Nm=actualPhotoCount&sf2Dir=DESC&sf2Nm=price&zc=48104&rd=99999&mkId=20089&mdId=22189&yrId=20200&yrId=27381&yrId=20200&searchSource=GN_REFINEMENT'
p1
aS'http://www.cars.com/for-sale/searchresults.action?PMmt=1-1-0&crSrtFlds=feedSegId&feedSegId=28705&isDealerGrouping=false&rpp=250&sf1Dir=DESC&sf1Nm=actualPhotoCount&sf2Dir=DESC&sf2Nm=price&zc=48104&rd=99999&mkId=20066&mdId=22382&yrId=20139&yrId=20195&yrId=20139&searchSource=GN_REFINEMENT'
p2
aS'http://www.cars.com/for-sale/searchresults.action?PMmt=1-0-0&crSrtFlds=stkTypId-feedSegId-mkId&feedSegId=28705&isDealerGrouping=false&rpp=100&sf1Dir=ASC&sf1Nm=modelYear&sf2Dir=DESC&sf2Nm=price&zc=48105&rd=99999&stkTypId=28881&mkId=20005&yrId=20196&yrId=20140&yrId=20195&yrId=20139&yrId=20194&yrId=20138&yrId=20193&yrId=20192&yrId=20135&yrId=20190&yrId=20187&yrId=20196&bsId=20203&photoId=46724&mdId=20546&mdId=20562&mdId=20523&mdId=21396&mdId=21392&mdId=21420&mdId=20546&searchSource=GN_REFINEMENT'
p3
aS'http://www.cars.com/for-sale/searchresults.action?PMmt=1-0-0&crSrtFlds=stkTypId-feedSegId-mkId&feedSegId=28705&isDealerGrouping=false&rpp=50&sf1Dir=DESC&sf1Nm=price&sf2Dir=ASC&sf2Nm=miles&zc=48105&rd=100000&stkTypId=28881&mkId=20019&photoId=46724&mdId=49584&mdId=21046&mdId=49584&searchSource=GN_REFINEMENT'
p4
aS'http://www.cars.com/for-sale/searchresults.action?feedSegId=28705&sf2Nm=miles&requestorTrackingInfo=RTB_SEARCH&yrId=34923&yrId=39723&yrId=27381&yrId=20201&sf1Nm=price&sf2Dir=ASC&stkTypId=28881&PMmt=1-1-0&zc=48105&rd=100000&bsId=20202&mdId=20567&mkId=20081&sf1Dir=DESC&searchSource=UTILITY&crSrtFlds=stkTypId-feedSegId-mkId-mdId&pgId=2102&rpp=250'
p5
aS'http://www.cars.com/for-sale/searchresults.action?PMmt=1-1-0&crSrtFlds=feedSegId&feedSegId=28705&isDealerGrouping=false&rpp=250&sf1Dir=DESC&sf1Nm=actualPhotoCount&sf2Dir=DESC&sf2Nm=price&zc=48104&rd=99999&mkId=20015&mdId=22164&yrId=20197&yrId=20142&yrId=20198&yrId=20143&yrId=20199&yrId=20197&searchSource=GN_REFINEMENT'
p6
aS'http://www.cars.com/for-sale/searchresults.action?PMmt=1-1-0&crSrtFlds=feedSegId&feedSegId=28705&isDealerGrouping=false&rpp=250&sf1Dir=DESC&sf1Nm=actualPhotoCount&sf2Dir=DESC&sf2Nm=price&zc=48104&rd=99999&mkId=20049&mdId=20598&yrId=58487&yrId=56007&yrId=58487&searchSource=GN_REFINEMENT'
p7
aS'http://www.cars.com/for-sale/searchresults.action?feedSegId=28705&photoId=46724&sf2Nm=price&requestorTrackingInfo=RTB_SEARCH&sf1Nm=modelYear&sf2Dir=DESC&stkTypId=28881&PMmt=1-1-0&zc=48105&rd=100000&bsId=20216&mdId=21758&mkId=20089&sf1Dir=ASC&searchSource=UTILITY&crSrtFlds=stkTypId-feedSegId-mkId&pgId=2102&rpp=100'
p8
aS'http://www.cars.com/for-sale/searchresults.action?PMmt=1-0-0&crSrtFlds=stkTypId-feedSegId-mkId&feedSegId=28705&isDealerGrouping=false&rpp=250&sf1Dir=DESC&sf1Nm=price&sf2Dir=ASC&sf2Nm=miles&zc=48105&rd=100000&stkTypId=28881&mkId=20035&mdId=21186&searchSource=GN_REFINEMENT'
p9
aS'http://www.cars.com/for-sale/searchresults.action?PMmt=1-1-0&crSrtFlds=feedSegId&feedSegId=28705&isDealerGrouping=false&rpp=100&sf1Dir=DESC&sf1Nm=actualPhotoCount&sf2Dir=DESC&sf2Nm=price&zc=48104&rd=99999&mkId=20088&mdId=22250&yrId=20194&yrId=20139&yrId=20195&yrId=20140&yrId=20196&yrId=20141&yrId=20197&yrId=20142&yrId=20198&yrId=20143&yrId=20199&yrId=20194&searchSource=GN_REFINEMENT'
p10
aS'http://www.cars.com/for-sale/searchresults.action?PMmt=1-4-0&crSrtFlds=feedSegId&feedSegId=28705&isDealerGrouping=false&rpp=250&sf1Dir=DESC&sf1Nm=actualPhotoCount&sf2Dir=DESC&sf2Nm=price&zc=48104&rd=99999&mkId=20015&mdId=21175&mdId=53027&mdId=27661&mdId=51624&mdId=21175&yrId=20144&yrId=20200&yrId=20145&yrId=20201&yrId=27381&yrId=34923&yrId=20144&searchSource=GN_REFINEMENT'
p11
aS'http://www.cars.com/for-sale/searchresults.action?PMmt=1-3-0&crSrtFlds=stkTypId-feedSegId-mkId&feedSegId=28705&isDealerGrouping=false&rpp=250&sf1Dir=DESC&sf1Nm=price&sf2Dir=ASC&sf2Nm=miles&zc=48105&rd=100000&stkTypId=28881&mkId=20072&mdId=21197&mdId=21247&mdId=21814&mdId=21197&photoId=46724&searchSource=GN_REFINEMENT'
p12
aS'http://www.cars.com/for-sale/searchresults.action?PMmt=1-2-0&crSrtFlds=feedSegId&feedSegId=28705&isDealerGrouping=false&rpp=250&sf1Dir=DESC&sf1Nm=actualPhotoCount&sf2Dir=DESC&sf2Nm=price&zc=48104&rd=99999&mkId=20015&mdId=21088&mdId=21070&mdId=21088&yrId=39723&yrId=47272&yrId=51683&yrId=39723&searchSource=GN_REFINEMENT'
p13
aS'http://www.cars.com/for-sale/searchresults.action?PMmt=1-0-0&crSrtFlds=feedSegId&feedSegId=28705&isDealerGrouping=false&rpp=250&sf1Dir=DESC&sf1Nm=actualPhotoCount&sf2Dir=DESC&sf2Nm=price&zc=48104&rd=99999&mkId=20077&mdId=20403&searchSource=GN_REFINEMENT'
p14
aS'http://www.cars.com/for-sale/searchresults.action?feedSegId=28705&rpp=250&photoId=46724&sf2Nm=price&requestorTrackingInfo=RTB_SEARCH&sf1Nm=modelYear&sf2Dir=DESC&PMmt=1-1-0&zc=48105&rd=100000&bsId=20203&mdId=20775&mkId=20028&sf1Dir=ASC&searchSource=UTILITY&crSrtFlds=feedSegId-mkId&pgId=2102&rn=250'
p15
aS'http://www.cars.com/for-sale/searchresults.action?PMmt=1-2-0&crSrtFlds=feedSegId&feedSegId=28705&isDealerGrouping=false&rpp=250&sf1Dir=DESC&sf1Nm=actualPhotoCount&sf2Dir=DESC&sf2Nm=price&zc=48104&rd=99999&mkId=20015&mdId=21138&mdId=42464&mdId=21138&yrId=20141&yrId=20197&yrId=20142&yrId=20198&yrId=20141&searchSource=GN_REFINEMENT'
p16
aS'http://www.cars.com/for-sale/searchresults.action?feedSegId=28705&rpp=250&sf2Nm=price&requestorTrackingInfo=RTB_SEARCH&sf1Nm=actualPhotoCount&sf2Dir=DESC&PMmt=1-1-0&zc=48104&rd=99999&mdId=21223&mkId=20074&sf1Dir=DESC&searchSource=UTILITY&crSrtFlds=feedSegId&pgId=2102&rn=500'
p17
aS'http://www.cars.com/for-sale/searchresults.action?feedSegId=28705&rpp=100&photoId=46724&sf2Nm=price&requestorTrackingInfo=RTB_SEARCH&sf1Nm=modelYear&sf2Dir=DESC&stkTypId=28881&PMmt=1-1-0&zc=48105&rd=100000&mdId=21445&mkId=20077&sf1Dir=ASC&searchSource=UTILITY&crSrtFlds=stkTypId-feedSegId-mkId&pgId=2102&rn=800'
p18
aS'http://www.cars.com/for-sale/searchresults.action?PMmt=1-0-0&crSrtFlds=feedSegId&feedSegId=28705&isDealerGrouping=false&rpp=250&sf1Dir=DESC&sf1Nm=actualPhotoCount&sf2Dir=DESC&sf2Nm=price&zc=48104&rd=99999&yrId=58487&yrId=56007&yrId=51683&yrId=47272&yrId=58487&mkId=20005&mdId=54807&mdId=20434&mdId=54807&searchSource=GN_REFINEMENT'
p19
aS'http://www.cars.com/for-sale/searchresults.action?PMmt=0-0-0&crSrtFlds=feedSegId-mdId&feedSegId=28705&isDealerGrouping=false&rpp=250&sf1Dir=DESC&sf1Nm=actualPhotoCount&sf2Dir=DESC&sf2Nm=price&zc=48104&rd=99999&mkId=20069&searchSource=GN_REFINEMENT'
p20
aS'http://www.cars.com/for-sale/searchresults.action?feedSegId=28705&rpp=100&sf2Nm=price&requestorTrackingInfo=RTB_SEARCH&yrId=51683&yrId=56007&yrId=58487&yrId=39723&yrId=47272&sf1Nm=actualPhotoCount&sf2Dir=DESC&PMmt=1-1-0&zc=48104&rd=99999&mdId=20800&mkId=20088&sf1Dir=DESC&searchSource=UTILITY&crSrtFlds=feedSegId&pgId=2102&rn=100'
p21
aS'http://www.cars.com/for-sale/searchresults.action?feedSegId=28705&rpp=250&photoId=46724&requestorTrackingInfo=RTB_SEARCH&stkTypId=28881&PMmt=1-1-0&zc=48105&rd=100000&mdId=21930&mkId=20028&searchSource=SORT_USED&crSrtFlds=stkTypId-feedSegId-mkId&pgId=2102&sf1Nm=modelYear&sf1Dir=DESC&sf2Nm=price&sf2Dir=DESC'
p22
aS'http://www.cars.com/for-sale/searchresults.action?PMmt=1-1-0&crSrtFlds=feedSegId&feedSegId=28705&isDealerGrouping=false&rpp=250&sf1Dir=DESC&sf1Nm=actualPhotoCount&sf2Dir=DESC&sf2Nm=price&zc=48104&rd=99999&yrId=56007&yrId=51683&yrId=47272&yrId=39723&yrId=34923&yrId=56007&mkId=20028&mdId=20745&bsId=20203&searchSource=GN_REFINEMENT'
p23
aS'http://www.cars.com/for-sale/searchresults.action?PMmt=1-0-0&crSrtFlds=feedSegId&feedSegId=28705&isDealerGrouping=false&rpp=250&sf1Dir=DESC&sf1Nm=actualPhotoCount&sf2Dir=DESC&sf2Nm=price&zc=48104&rd=99999&mkId=20077&mdId=35968&searchSource=GN_REFINEMENT'
p24
aS'http://www.cars.com/for-sale/searchresults.action?PMmt=1-3-0&crSrtFlds=feedSegId&feedSegId=28705&isDealerGrouping=false&rpp=250&sf1Dir=DESC&sf1Nm=actualPhotoCount&sf2Dir=DESC&sf2Nm=price&zc=48104&rd=99999&mkId=20064&mdId=21053&mdId=49764&mdId=27781&mdId=21053&yrId=20193&yrId=20139&yrId=20195&yrId=20140&yrId=20196&yrId=20141&yrId=20197&yrId=20142&yrId=20198&yrId=20143&yrId=20199&yrId=20193&searchSource=GN_REFINEMENT'
p25
aS'http://www.cars.com/for-sale/searchresults.action?feedSegId=28705&rpp=250&sf2Nm=price&requestorTrackingInfo=RTB_SEARCH&sf1Nm=modelYear&sf2Dir=DESC&stkTypId=28881&PMmt=1-1-0&zc=48105&rd=100000&bsId=20203&mdId=20606&mkId=20017&sf1Dir=DESC&searchSource=UTILITY&crSrtFlds=stkTypId-feedSegId-mkId&pgId=2102&rn=2250'
p26
aS'http://www.cars.com/for-sale/searchresults.action?stkTyp=U&tracktype=usedcc&mkId=20001&AmbMkId=20001&AmbMkNm=Acura&make=Acura&AmbMdId=21685&AmbMdNm=NSX&model=NSX&mdId=21685&rd=99999&zc=48105&searchSource=QUICK_FORM'
p27
aS'http://www.cars.com/for-sale/searchresults.action?PMmt=0-1-0&crSrtFlds=feedSegId&feedSegId=28705&isDealerGrouping=false&rpp=250&sf1Dir=DESC&sf1Nm=actualPhotoCount&sf2Dir=DESC&sf2Nm=price&zc=48104&rd=99999&mdId=21179&bsId=20203&searchSource=GN_REFINEMENT'
p28
aS'http://www.cars.com/for-sale/searchresults.action?PMmt=1-1-0&crSrtFlds=feedSegId&feedSegId=28705&isDealerGrouping=false&rpp=100&sf1Dir=DESC&sf1Nm=actualPhotoCount&sf2Dir=DESC&sf2Nm=price&zc=48104&rd=99999&yrId=20143&yrId=20198&yrId=20142&yrId=20197&yrId=20141&yrId=20196&yrId=20140&yrId=20195&yrId=20139&yrId=20194&yrId=20143&mkId=20089&mdId=21758&bsId=20216&searchSource=GN_REFINEMENT'
p29
aS'http://www.cars.com/for-sale/searchresults.action?PMmt=1-1-0&crSrtFlds=feedSegId&feedSegId=28705&isDealerGrouping=false&rpp=250&sf1Dir=DESC&sf1Nm=actualPhotoCount&sf2Dir=DESC&sf2Nm=price&zc=48104&rd=99999&mkId=20035&mdId=21220&yrId=20137&yrId=20193&yrId=20138&yrId=20194&yrId=20139&yrId=20195&yrId=20140&yrId=20196&yrId=20137&searchSource=GN_REFINEMENT'
p30
aS'http://www.cars.com/for-sale/searchresults.action?feedSegId=28705&rpp=250&sf2Nm=price&requestorTrackingInfo=RTB_SEARCH&sf1Nm=actualPhotoCount&sf2Dir=DESC&PMmt=1-1-0&zc=48104&rd=99999&mdId=21421&mkId=20074&sf1Dir=DESC&searchSource=UTILITY&crSrtFlds=feedSegId&pgId=2102&rn=250'
p31
aS'http://www.cars.com/for-sale/searchresults.action?feedSegId=28705&rpp=100&photoId=46724&requestorTrackingInfo=RTB_SEARCH&stkTypId=28881&PMmt=1-1-0&zc=48105&rd=100000&mdId=21445&mkId=20077&searchSource=SORT_USED&crSrtFlds=stkTypId-feedSegId-mkId&pgId=2102&sf1Nm=modelYear&sf1Dir=DESC&sf2Nm=price&sf2Dir=DESC'
p32
aS'http://www.cars.com/for-sale/searchresults.action?PMmt=1-0-0&crSrtFlds=feedSegId&feedSegId=28705&isDealerGrouping=false&rpp=250&sf1Dir=DESC&sf1Nm=actualPhotoCount&sf2Dir=DESC&sf2Nm=price&zc=48104&rd=99999&yrId=51683&yrId=47272&yrId=51683&mkId=20049&mdId=27681&mdId=50823&mdId=27681&searchSource=GN_REFINEMENT'
p33
aS'http://www.cars.com/for-sale/searchresults.action?feedSegId=28705&rpp=250&photoId=46724&sf2Nm=miles&requestorTrackingInfo=RTB_SEARCH&sf1Nm=price&sf2Dir=ASC&stkTypId=28881&PMmt=1-1-0&zc=48105&rd=100000&mdId=21148&mkId=20035&sf1Dir=DESC&searchSource=UTILITY&crSrtFlds=stkTypId-feedSegId-mkId&pgId=2102&rn=250'
p34
aS'http://www.cars.com/for-sale/searchresults.action?PMmt=1-0-0&crSrtFlds=feedSegId&feedSegId=28705&isDealerGrouping=false&rpp=100&sf1Dir=DESC&sf1Nm=actualPhotoCount&sf2Dir=DESC&sf2Nm=price&zc=48104&rd=99999&mkId=20042&mdId=21826&searchSource=GN_REFINEMENT'
p35
aS'http://www.cars.com/for-sale/searchresults.action?feedSegId=28705&rpp=250&sf2Nm=price&requestorTrackingInfo=RTB_SEARCH&yrId=20199&yrId=20198&yrId=20143&yrId=20142&sf1Nm=actualPhotoCount&sf2Dir=DESC&PMmt=1-1-0&zc=48104&rd=99999&mdId=21931&mkId=20077&sf1Dir=DESC&searchSource=UTILITY&crSrtFlds=feedSegId&pgId=2102&rn=250'
p36
a.