(lp0
S'http://www.cars.com/for-sale/searchresults.action?PMmt=1-0-0&crSrtFlds=feedSegId&feedSegId=28705&isDealerGrouping=false&rpp=250&sf1Dir=DESC&sf1Nm=actualPhotoCount&sf2Dir=DESC&sf2Nm=price&zc=48104&rd=99999&mkId=20081&mdId=57448&searchSource=GN_REFINEMENT'
p1
aS'http://www.cars.com/for-sale/searchresults.action?feedSegId=28705&photoId=46724&sf2Nm=miles&requestorTrackingInfo=RTB_SEARCH&sf1Nm=price&sf2Dir=ASC&stkTypId=28881&PMmt=1-2-0&zc=48105&rd=99999&bsId=20203&mdId=20281&mdId=20292&mkId=20005&sf1Dir=DESC&searchSource=UTILITY&crSrtFlds=stkTypId-feedSegId-mkId&pgId=2102&rpp=100'
p2
aS'http://www.cars.com/for-sale/searchresults.action?PMmt=1-1-0&crSrtFlds=feedSegId&feedSegId=28705&isDealerGrouping=false&rpp=250&sf1Dir=DESC&sf1Nm=actualPhotoCount&sf2Dir=DESC&sf2Nm=price&zc=48104&rd=99999&yrId=27381&yrId=20201&yrId=20145&yrId=20200&yrId=20144&yrId=20199&yrId=27381&mkId=20049&mdId=20598&bsId=20216&searchSource=GN_REFINEMENT'
p3
aS'http://www.cars.com/for-sale/searchresults.action?feedSegId=28705&rpp=250&sf2Nm=price&requestorTrackingInfo=RTB_SEARCH&sf1Nm=actualPhotoCount&sf2Dir=DESC&PMmt=1-1-0&zc=48104&rd=99999&mdId=21861&mkId=20012&sf1Dir=DESC&searchSource=GN_BREADCRUMB&crSrtFlds=feedSegId&pgId=2102'
p4
aS'http://www.cars.com/for-sale/searchresults.action?PMmt=1-0-0&crSrtFlds=feedSegId&feedSegId=28705&isDealerGrouping=false&rpp=250&sf1Dir=ASC&sf1Nm=modelYear&sf2Dir=DESC&sf2Nm=price&zc=48105&rd=100000&mkId=20012&stkTypId=28881&photoId=46724&mdId=21268&searchSource=GN_REFINEMENT'
p5
aS'http://www.cars.com/for-sale/searchresults.action?PMmt=1-1-0&crSrtFlds=feedSegId&feedSegId=28705&isDealerGrouping=false&rpp=250&sf1Dir=DESC&sf1Nm=actualPhotoCount&sf2Dir=DESC&sf2Nm=price&zc=48104&rd=99999&mkId=20077&mdId=21145&yrId=20140&yrId=20196&yrId=20141&yrId=20140&searchSource=GN_REFINEMENT'
p6
aS'http://www.cars.com/for-sale/searchresults.action?PMmt=1-3-0&crSrtFlds=feedSegId&feedSegId=28705&isDealerGrouping=false&rpp=250&sf1Dir=DESC&sf1Nm=actualPhotoCount&sf2Dir=DESC&sf2Nm=price&zc=48104&rd=99999&mkId=20017&mdId=20606&mdId=20611&mdId=52227&mdId=20606&yrId=20145&yrId=20201&yrId=27381&yrId=34923&yrId=20145&searchSource=GN_REFINEMENT'
p7
aS'http://www.cars.com/for-sale/searchresults.action?PMmt=1-2-0&crSrtFlds=feedSegId&feedSegId=28705&isDealerGrouping=false&rpp=250&sf1Dir=DESC&sf1Nm=actualPhotoCount&sf2Dir=DESC&sf2Nm=price&zc=48104&rd=99999&mkId=20053&mdId=21291&mdId=57087&mdId=21291&yrId=20177&yrId=20178&yrId=20122&yrId=20123&yrId=20179&yrId=20124&yrId=20180&yrId=20125&yrId=20181&yrId=20126&yrId=20177&searchSource=GN_REFINEMENT'
p8
aS'http://www.cars.com/for-sale/searchresults.action?feedSegId=28705&rpp=250&sf2Nm=price&requestorTrackingInfo=RTB_SEARCH&sf1Nm=actualPhotoCount&sf2Dir=DESC&PMmt=1-0-0&zc=48104&rd=99999&mkId=20037&sf1Dir=DESC&searchSource=UTILITY&crSrtFlds=feedSegId&pgId=2102&rn=1000'
p9
aS'http://www.cars.com/for-sale/searchresults.action?PMmt=0-0-0&crSrtFlds=stkTypId-feedSegId&feedSegId=28705&isDealerGrouping=false&rpp=250&sf1Dir=ASC&sf1Nm=modelYear&sf2Dir=DESC&sf2Nm=price&zc=48105&stkTypId=28881&photoId=46724&mdId=22331&searchSource=GN_REFINEMENT'
p10
aS'http://www.cars.com/for-sale/searchresults.action?feedSegId=28705&rpp=250&photoId=46724&requestorTrackingInfo=RTB_SEARCH&stkTypId=28881&PMmt=1-1-0&zc=48105&rd=100000&mdId=21930&mkId=20028&searchSource=SORT_USED&crSrtFlds=stkTypId-feedSegId-mkId&pgId=2102&sf1Nm=modelYear&sf1Dir=ASC&sf2Nm=price&sf2Dir=DESC'
p11
aS'http://www.cars.com/for-sale/searchresults.action?feedSegId=28705&rpp=250&photoId=46724&sf2Nm=miles&requestorTrackingInfo=RTB_SEARCH&sf1Nm=price&sf2Dir=ASC&stkTypId=28881&PMmt=1-13-0&zc=48105&mdId=52728&mdId=20955&mdId=22247&mdId=40743&mdId=53259&mdId=37363&mdId=20957&mdId=57988&mdId=30002548&mdId=20961&mdId=22253&mdId=47110&mdId=20967&mkId=20003&sf1Dir=DESC&searchSource=UTILITY&crSrtFlds=stkTypId-feedSegId-mkId&pgId=2102&rn=250'
p12
aS'http://www.cars.com/for-sale/searchresults.action?feedSegId=28705&rpp=250&sf2Nm=price&requestorTrackingInfo=RTB_SEARCH&sf1Nm=actualPhotoCount&sf2Dir=DESC&PMmt=1-0-0&zc=48104&rd=99999&mkId=20069&sf1Dir=DESC&searchSource=UTILITY&crSrtFlds=feedSegId-mdId&pgId=2102&rn=250'
p13
aS'http://www.cars.com/for-sale/searchresults.action?PMmt=1-1-0&crSrtFlds=feedSegId&feedSegId=28705&isDealerGrouping=false&rpp=250&sf1Dir=DESC&sf1Nm=actualPhotoCount&sf2Dir=DESC&sf2Nm=price&zc=48104&rd=99999&mkId=20017&mdId=21734&yrId=51683&yrId=56007&yrId=58487&yrId=51683&searchSource=GN_REFINEMENT'
p14
aS'http://www.cars.com/for-sale/searchresults.action?feedSegId=28705&rpp=50&photoId=46724&sf2Nm=miles&requestorTrackingInfo=RTB_SEARCH&sf1Nm=price&sf2Dir=ASC&stkTypId=28881&PMmt=1-1-0&zc=48105&rd=100000&mdId=22265&mkId=20089&sf1Dir=DESC&searchSource=UTILITY&crSrtFlds=stkTypId-feedSegId-mkId-mdId&pgId=2102&rn=0'
p15
aS'http://www.cars.com/for-sale/searchresults.action?PMmt=1-0-0&crSrtFlds=feedSegId&feedSegId=28705&isDealerGrouping=false&rpp=250&sf1Dir=DESC&sf1Nm=actualPhotoCount&sf2Dir=DESC&sf2Nm=price&zc=48104&rd=99999&mkId=20070&mdId=35964&searchSource=GN_REFINEMENT'
p16
aS'http://www.cars.com/for-sale/searchresults.action?feedSegId=28705&rpp=250&sf2Nm=price&requestorTrackingInfo=RTB_SEARCH&sf1Nm=actualPhotoCount&sf2Dir=DESC&PMmt=1-1-0&zc=48104&rd=99999&mdId=21037&mkId=20030&sf1Dir=DESC&searchSource=UTILITY&crSrtFlds=feedSegId&pgId=2102&rn=500'
p17
aS'http://www.cars.com/for-sale/searchresults.action?PMmt=1-0-0&crSrtFlds=feedSegId&feedSegId=28705&isDealerGrouping=false&rpp=250&sf1Dir=DESC&sf1Nm=actualPhotoCount&sf2Dir=DESC&sf2Nm=price&zc=48104&rd=99999&mkId=20021&mdId=21766&searchSource=GN_REFINEMENT'
p18
aS'http://www.cars.com/for-sale/searchresults.action?PMmt=1-1-0&crSrtFlds=feedSegId&feedSegId=28705&isDealerGrouping=false&rpp=250&sf1Dir=DESC&sf1Nm=actualPhotoCount&sf2Dir=DESC&sf2Nm=price&zc=48104&rd=99999&mkId=20077&mdId=22330&yrId=20141&yrId=20197&yrId=20142&yrId=20198&yrId=20143&yrId=20199&yrId=20141&searchSource=GN_REFINEMENT'
p19
aS'http://www.cars.com/for-sale/searchresults.action?PMmt=1-0-0&crSrtFlds=feedSegId&feedSegId=28705&isDealerGrouping=false&rpp=100&sf1Dir=DESC&sf1Nm=actualPhotoCount&sf2Dir=DESC&sf2Nm=price&zc=48104&rd=99999&mkId=20088&mdId=21444&searchSource=GN_REFINEMENT'
p20
aS'http://www.cars.com/for-sale/searchresults.action?feedSegId=28705&rpp=250&photoId=46724&sf2Nm=price&requestorTrackingInfo=RTB_SEARCH&sf1Nm=modelYear&sf2Dir=DESC&stkTypId=28881&PMmt=0-1-0&zc=48105&mdId=22213&sf1Dir=ASC&searchSource=UTILITY&crSrtFlds=stkTypId-feedSegId&pgId=2102&rn=250'
p21
aS'http://www.cars.com/for-sale/searchresults.action?PMmt=1-4-0&crSrtFlds=feedSegId&feedSegId=28705&isDealerGrouping=false&rpp=250&sf1Dir=DESC&sf1Nm=actualPhotoCount&sf2Dir=DESC&sf2Nm=price&zc=48104&rd=99999&mkId=20070&mdId=21337&mdId=21363&mdId=21339&mdId=21364&mdId=21337&yrId=20198&searchSource=GN_REFINEMENT'
p22
aS'http://www.cars.com/for-sale/searchresults.action?feedSegId=28705&rpp=100&photoId=46724&sf2Nm=price&requestorTrackingInfo=RTB_SEARCH&sf1Nm=modelYear&sf2Dir=DESC&stkTypId=28881&PMmt=1-1-0&zc=48105&rd=100000&mdId=21445&mkId=20077&sf1Dir=ASC&searchSource=UTILITY&crSrtFlds=stkTypId-feedSegId-mkId&pgId=2102&rn=1700'
p23
aS'http://www.cars.com/for-sale/searchresults.action?PMmt=1-3-0&crSrtFlds=feedSegId&feedSegId=28705&isDealerGrouping=false&rpp=250&sf1Dir=DESC&sf1Nm=actualPhotoCount&sf2Dir=DESC&sf2Nm=price&zc=48104&rd=99999&mkId=20015&mdId=21105&mdId=21087&mdId=21107&mdId=21105&yrId=20192&yrId=20137&yrId=20193&yrId=20138&yrId=20192&searchSource=GN_REFINEMENT'
p24
aS'http://www.cars.com/for-sale/searchresults.action?PMmt=1-2-0&crSrtFlds=feedSegId&feedSegId=28705&isDealerGrouping=false&rpp=250&sf1Dir=DESC&sf1Nm=actualPhotoCount&sf2Dir=DESC&sf2Nm=price&zc=48104&rd=99999&mkId=20015&mdId=21712&mdId=21684&mdId=21712&yrId=20123&yrId=20124&yrId=20179&yrId=20180&yrId=20125&yrId=20181&yrId=20126&yrId=20182&yrId=20127&yrId=20183&yrId=20123&searchSource=GN_REFINEMENT'
p25
aS'http://www.cars.com/for-sale/searchresults.action?PMmt=1-0-0&crSrtFlds=feedSegId-mkId&feedSegId=28705&isDealerGrouping=false&rpp=100&sf1Dir=DESC&sf1Nm=actualPhotoCount&sf2Dir=DESC&sf2Nm=price&zc=48104&rd=99999&mkId=20044&mdId=20749&searchSource=GN_REFINEMENT'
p26
aS'http://www.cars.com/for-sale/searchresults.action?feedSegId=28705&rpp=100&photoId=46724&sf2Nm=price&requestorTrackingInfo=RTB_SEARCH&sf1Nm=modelYear&sf2Dir=DESC&stkTypId=28881&PMmt=1-1-0&zc=48105&rd=100000&mdId=21445&mkId=20077&sf1Dir=ASC&searchSource=UTILITY&crSrtFlds=stkTypId-feedSegId-mkId&pgId=2102&rn=2200'
p27
aS'http://www.cars.com/for-sale/searchresults.action?PMmt=0-0-0&crSrtFlds=feedSegId&feedSegId=28705&isDealerGrouping=false&rpp=250&sf1Dir=DESC&sf1Nm=actualPhotoCount&sf2Dir=DESC&sf2Nm=price&zc=48104&rd=99999&mkId=20071&searchSource=GN_REFINEMENT'
p28
aS'http://www.cars.com/for-sale/searchresults.action?PMmt=1-0-0&crSrtFlds=feedSegId&feedSegId=28705&isDealerGrouping=false&rpp=250&sf1Dir=DESC&sf1Nm=actualPhotoCount&sf2Dir=DESC&sf2Nm=price&zc=48104&rd=99999&mkId=20075&mdId=38203&searchSource=GN_REFINEMENT'
p29
aS'http://www.cars.com/for-sale/searchresults.action?feedSegId=28705&photoId=46724&sf2Nm=miles&requestorTrackingInfo=RTB_SEARCH&sf1Nm=price&sf2Dir=ASC&stkTypId=28881&PMmt=1-1-0&zc=48105&rd=99999&mdId=21940&mkId=20052&sf1Dir=DESC&searchSource=UTILITY&crSrtFlds=stkTypId-feedSegId-mkId&pgId=2102&rpp=100'
p30
aS'http://www.cars.com/for-sale/searchresults.action?PMmt=0-0-0&crSrtFlds=stkTypId-feedSegId&feedSegId=28705&isDealerGrouping=false&rpp=100&sf1Dir=DESC&sf1Nm=modelYear&sf2Dir=DESC&sf2Nm=price&zc=48105&rd=99999&stkTypId=28881&photoId=46724&mdId=21798&searchSource=GN_REFINEMENT'
p31
aS'http://www.cars.com/for-sale/searchresults.action?PMmt=1-1-0&crSrtFlds=feedSegId&feedSegId=28705&isDealerGrouping=false&rpp=250&sf1Dir=DESC&sf1Nm=actualPhotoCount&sf2Dir=DESC&sf2Nm=price&zc=48104&rd=99999&mkId=20077&mdId=21145&yrId=20144&yrId=20200&yrId=20145&yrId=20201&yrId=27381&yrId=34923&yrId=39723&yrId=47272&yrId=20144&searchSource=GN_REFINEMENT'
p32
aS'http://www.cars.com/for-sale/searchresults.action?PMmt=1-1-0&crSrtFlds=feedSegId&feedSegId=28705&isDealerGrouping=false&rpp=250&sf1Dir=DESC&sf1Nm=actualPhotoCount&sf2Dir=DESC&sf2Nm=price&zc=48104&rd=99999&mkId=20035&mdId=21148&bsId=20203&searchSource=GN_REFINEMENT'
p33
aS'http://www.cars.com/for-sale/searchresults.action?feedSegId=28705&rpp=250&sf2Nm=price&requestorTrackingInfo=RTB_SEARCH&sf1Nm=actualPhotoCount&sf2Dir=DESC&PMmt=1-1-0&zc=48104&rd=99999&mdId=21504&mkId=20074&sf1Dir=DESC&searchSource=UTILITY&crSrtFlds=feedSegId&pgId=2102&rn=250'
p34
aS'http://www.cars.com/for-sale/searchresults.action?PMmt=1-2-0&crSrtFlds=feedSegId&feedSegId=28705&isDealerGrouping=false&rpp=250&sf1Dir=DESC&sf1Nm=actualPhotoCount&sf2Dir=DESC&sf2Nm=price&zc=48104&rd=99999&mkId=20015&mdId=21104&mdId=21085&mdId=21104&yrId=20198&yrId=20143&yrId=20199&yrId=20144&yrId=20198&searchSource=GN_REFINEMENT'
p35
aS'http://www.cars.com/for-sale/searchresults.action?PMmt=1-0-0&crSrtFlds=stkTypId-feedSegId-mkId&feedSegId=28705&isDealerGrouping=false&rpp=100&sf1Dir=DESC&sf1Nm=modelYear&sf2Dir=DESC&sf2Nm=price&zc=48105&rd=99999&stkTypId=28881&mkId=20005&photoId=46724&mdId=22396&mdId=22333&mdId=22396&searchSource=GN_REFINEMENT'
p36
a.