(lp0
S'http://www.cars.com/for-sale/searchresults.action?PMmt=1-1-0&crSrtFlds=feedSegId&feedSegId=28705&isDealerGrouping=false&rpp=250&sf1Dir=DESC&sf1Nm=actualPhotoCount&sf2Dir=DESC&sf2Nm=price&zc=48104&rd=99999&mkId=20068&mdId=21970&yrId=20200&yrId=20145&yrId=20201&yrId=27381&yrId=34923&yrId=20200&searchSource=GN_REFINEMENT'
p1
aS'http://www.cars.com/for-sale/searchresults.action?PMmt=1-1-0&crSrtFlds=feedSegId&feedSegId=28705&isDealerGrouping=false&rpp=250&sf1Dir=DESC&sf1Nm=actualPhotoCount&sf2Dir=DESC&sf2Nm=price&zc=48104&rd=99999&mkId=20072&mdId=21814&yrId=51683&yrId=56007&yrId=51683&searchSource=GN_REFINEMENT'
p2
aS'http://www.cars.com/for-sale/searchresults.action?PMmt=1-0-0&crSrtFlds=feedSegId&feedSegId=28705&isDealerGrouping=false&rpp=250&sf1Dir=DESC&sf1Nm=actualPhotoCount&sf2Dir=DESC&sf2Nm=price&zc=48104&rd=99999&mkId=20024&mdId=43403&searchSource=GN_REFINEMENT'
p3
aS'http://www.cars.com/for-sale/searchresults.action?feedSegId=28705&rpp=250&sf2Nm=price&requestorTrackingInfo=RTB_SEARCH&yrId=20199&yrId=20144&yrId=20145&yrId=27381&yrId=20143&yrId=20201&yrId=20200&sf1Nm=actualPhotoCount&sf2Dir=DESC&PMmt=1-1-0&zc=48104&rd=99999&mdId=20856&mkId=20053&sf1Dir=DESC&searchSource=UTILITY&crSrtFlds=feedSegId&pgId=2102&rn=250'
p4
aS'http://www.cars.com/for-sale/searchresults.action?PMmt=1-0-0&crSrtFlds=feedSegId&feedSegId=28705&isDealerGrouping=false&rpp=250&sf1Dir=DESC&sf1Nm=actualPhotoCount&sf2Dir=DESC&sf2Nm=price&zc=48104&rd=99999&yrId=34923&yrId=27381&yrId=20201&yrId=34923&mkId=20068&bsId=20206&searchSource=GN_REFINEMENT'
p5
aS'http://www.cars.com/for-sale/searchresults.action?feedSegId=28705&rpp=250&sf2Nm=price&requestorTrackingInfo=RTB_SEARCH&yrId=20144&yrId=20145&yrId=34923&yrId=39723&yrId=47272&yrId=27381&yrId=20201&yrId=20200&sf1Nm=actualPhotoCount&sf2Dir=DESC&PMmt=1-1-0&zc=48104&rd=99999&mdId=21145&mkId=20077&sf1Dir=DESC&searchSource=UTILITY&crSrtFlds=feedSegId&pgId=2102&rn=250'
p6
aS'http://www.cars.com/for-sale/searchresults.action?PMmt=1-0-0&crSrtFlds=stkTypId-feedSegId-mkId&feedSegId=28705&isDealerGrouping=false&rpp=100&sf1Dir=ASC&sf1Nm=modelYear&sf2Dir=DESC&sf2Nm=price&zc=48105&rd=99999&stkTypId=28881&mkId=20052&photoId=46724&mdId=20787&mdId=47563&mdId=20787&searchSource=GN_REFINEMENT'
p7
aS'http://www.cars.com/for-sale/searchresults.action?PMmt=0-1-0&crSrtFlds=stkTypId-feedSegId&feedSegId=28705&isDealerGrouping=false&rpp=250&sf1Dir=DESC&sf1Nm=modelYear&sf2Dir=DESC&sf2Nm=price&zc=48105&stkTypId=28881&mdId=22331&photoId=46724&bsId=20211&searchSource=GN_REFINEMENT'
p8
aS'http://www.cars.com/for-sale/searchresults.action?feedSegId=28705&sf2Nm=miles&requestorTrackingInfo=RTB_SEARCH&sf1Nm=price&sf2Dir=ASC&stkTypId=28881&PMmt=1-3-0&zc=48105&rd=100000&mdId=22126&mdId=27401&mdId=20673&mkId=20035&sf1Dir=DESC&searchSource=UTILITY&crSrtFlds=stkTypId-feedSegId-mkId&pgId=2102&rpp=250'
p9
aS'http://www.cars.com/for-sale/searchresults.action?feedSegId=28705&rpp=100&sf2Nm=price&requestorTrackingInfo=RTB_SEARCH&sf1Nm=actualPhotoCount&sf2Dir=DESC&PMmt=1-1-0&zc=48104&rd=99999&mdId=21444&mkId=20088&sf1Dir=DESC&searchSource=UTILITY&crSrtFlds=feedSegId&pgId=2102&rn=200'
p10
aS'http://www.cars.com/for-sale/searchresults.action?PMmt=1-1-0&crSrtFlds=feedSegId&feedSegId=28705&isDealerGrouping=false&rpp=250&sf1Dir=DESC&sf1Nm=actualPhotoCount&sf2Dir=DESC&sf2Nm=price&zc=48104&rd=99999&mkId=20021&mdId=20814&yrId=20135&yrId=20191&yrId=20136&yrId=20192&yrId=20137&yrId=20193&yrId=20138&yrId=20194&yrId=20139&yrId=20135&searchSource=GN_REFINEMENT'
p11
aS'http://www.cars.com/for-sale/searchresults.action?PMmt=0-0-0&crSrtFlds=feedSegId&feedSegId=28705&isDealerGrouping=false&rpp=250&sf1Dir=DESC&sf1Nm=actualPhotoCount&sf2Dir=DESC&sf2Nm=price&zc=48104&rd=99999&mdId=21685&searchSource=GN_REFINEMENT'
p12
aS'http://www.cars.com/for-sale/searchresults.action?PMmt=1-0-0&crSrtFlds=feedSegId&feedSegId=28705&isDealerGrouping=false&rpp=250&sf1Dir=DESC&sf1Nm=actualPhotoCount&sf2Dir=DESC&sf2Nm=price&zc=48104&rd=99999&mkId=20030&mdId=21361&mdId=21379&mdId=21361&searchSource=GN_REFINEMENT'
p13
aS'http://www.cars.com/for-sale/searchresults.action?feedSegId=28705&rpp=250&photoId=46724&sf2Nm=price&requestorTrackingInfo=RTB_SEARCH&sf1Nm=modelYear&sf2Dir=DESC&stkTypId=28881&PMmt=0-1-0&zc=48105&mdId=22331&sf1Dir=ASC&searchSource=UTILITY&crSrtFlds=stkTypId-feedSegId&pgId=2102&rn=250'
p14
aS'http://www.cars.com/for-sale/searchresults.action?PMmt=1-1-0&crSrtFlds=feedSegId&feedSegId=28705&isDealerGrouping=false&rpp=250&sf1Dir=DESC&sf1Nm=actualPhotoCount&sf2Dir=DESC&sf2Nm=price&zc=48104&rd=99999&mkId=20073&mdId=21447&yrId=51683&yrId=56007&yrId=51683&searchSource=GN_REFINEMENT'
p15
aS'http://www.cars.com/for-sale/searchresults.action?feedSegId=28705&rpp=250&photoId=46724&requestorTrackingInfo=RTB_SEARCH&stkTypId=28881&PMmt=0-1-0&zc=48105&mdId=22213&searchSource=SORT_USED&crSrtFlds=stkTypId-feedSegId&pgId=2102&sf1Nm=modelYear&sf1Dir=ASC&sf2Nm=price&sf2Dir=DESC'
p16
aS'http://www.cars.com/for-sale/searchresults.action?PMmt=1-4-0&crSrtFlds=feedSegId&feedSegId=28705&isDealerGrouping=false&rpp=250&sf1Dir=DESC&sf1Nm=actualPhotoCount&sf2Dir=DESC&sf2Nm=price&zc=48104&rd=99999&mkId=20053&mdId=22061&mdId=22131&mdId=22128&mdId=22070&mdId=22061&yrId=56007&searchSource=GN_REFINEMENT'
p17
aS'http://www.cars.com/for-sale/searchresults.action?feedSegId=28705&rpp=250&sf2Nm=price&requestorTrackingInfo=RTB_SEARCH&sf1Nm=actualPhotoCount&sf2Dir=DESC&PMmt=1-0-0&zc=48104&rd=99999&mkId=20014&sf1Dir=DESC&searchSource=UTILITY&crSrtFlds=feedSegId&pgId=2102&rn=250'
p18
aS'http://www.cars.com/for-sale/searchresults.action?PMmt=1-1-0&crSrtFlds=feedSegId&feedSegId=28705&isDealerGrouping=false&rpp=250&sf1Dir=DESC&sf1Nm=actualPhotoCount&sf2Dir=DESC&sf2Nm=price&zc=48104&rd=99999&mkId=20053&mdId=20856&yrId=20143&yrId=20199&yrId=20144&yrId=20200&yrId=20145&yrId=20201&yrId=27381&yrId=20143&searchSource=GN_REFINEMENT'
p19
aS'http://www.cars.com/for-sale/searchresults.action?PMmt=1-0-0&crSrtFlds=stkTypId-feedSegId-mkId&feedSegId=28705&isDealerGrouping=false&rpp=250&sf1Dir=ASC&sf1Nm=price&sf2Dir=ASC&sf2Nm=miles&zc=48105&rd=100000&stkTypId=28881&mkId=20006&mdId=21830&searchSource=GN_REFINEMENT'
p20
aS'http://www.cars.com/for-sale/searchresults.action?PMmt=1-1-0&crSrtFlds=feedSegId&feedSegId=28705&isDealerGrouping=false&rpp=250&sf1Dir=DESC&sf1Nm=actualPhotoCount&sf2Dir=DESC&sf2Nm=price&zc=48104&rd=99999&mkId=20073&mdId=21460&yrId=20201&yrId=27381&yrId=34923&yrId=39723&yrId=47272&yrId=20201&searchSource=GN_REFINEMENT'
p21
aS'http://www.cars.com/for-sale/searchresults.action?feedSegId=28705&rpp=250&photoId=46724&sf2Nm=miles&requestorTrackingInfo=RTB_SEARCH&sf1Nm=price&sf2Dir=ASC&stkTypId=28881&PMmt=1-3-0&zc=48105&rd=100000&mdId=21247&mdId=21197&mdId=21814&mkId=20072&sf1Dir=DESC&searchSource=UTILITY&crSrtFlds=stkTypId-feedSegId-mkId&pgId=2102&rn=500'
p22
aS'http://www.cars.com/for-sale/searchresults.action?feedSegId=28705&sf2Nm=miles&requestorTrackingInfo=RTB_SEARCH&sf1Nm=price&sf2Dir=ASC&stkTypId=28881&PMmt=1-2-0&zc=48105&rd=100000&mdId=20619&mdId=22359&mkId=20042&sf1Dir=DESC&searchSource=UTILITY&crSrtFlds=stkTypId-feedSegId-mkId&pgId=2102&rpp=250'
p23
aS'http://www.cars.com/for-sale/searchresults.action?PMmt=1-6-0&crSrtFlds=stkTypId-feedSegId-mkId&feedSegId=28705&isDealerGrouping=false&rpp=100&sf1Dir=ASC&sf1Nm=modelYear&sf2Dir=DESC&sf2Nm=price&zc=48105&rd=99999&stkTypId=28881&mkId=20005&mdId=20406&mdId=20443&mdId=20408&mdId=20444&mdId=20409&mdId=20445&mdId=20406&bsId=20203&photoId=46724&yrId=20196&yrId=20140&yrId=20195&yrId=20139&yrId=20194&yrId=20138&yrId=20193&yrId=20192&yrId=20135&yrId=20190&yrId=20187&yrId=20196&searchSource=GN_REFINEMENT'
p24
aS'http://www.cars.com/for-sale/searchresults.action?PMmt=1-0-0&crSrtFlds=stkTypId-feedSegId-mkId&feedSegId=28705&isDealerGrouping=false&rpp=250&sf1Dir=ASC&sf1Nm=modelYear&sf2Dir=DESC&sf2Nm=price&zc=48105&rd=100000&alMdId=30000861&stkTypId=28881&mkId=20053&photoId=46724&mdId=20770&searchSource=GN_REFINEMENT'
p25
aS'http://www.cars.com/for-sale/searchresults.action?feedSegId=28705&rpp=100&sf2Nm=price&requestorTrackingInfo=RTB_SEARCH&yrId=51683&yrId=56007&yrId=58487&yrId=39723&yrId=47272&sf1Nm=actualPhotoCount&sf2Dir=DESC&PMmt=1-1-0&zc=48104&rd=99999&mdId=20800&mkId=20088&sf1Dir=DESC&searchSource=UTILITY&crSrtFlds=feedSegId&pgId=2102&rn=200'
p26
aS'http://www.cars.com/for-sale/searchresults.action?feedSegId=28705&photoId=46724&sf2Nm=miles&requestorTrackingInfo=RTB_SEARCH&sf1Nm=price&sf2Dir=ASC&stkTypId=28881&PMmt=1-1-0&zc=48105&rd=100000&mdId=47283&mkId=20019&sf1Dir=DESC&searchSource=UTILITY&crSrtFlds=stkTypId-feedSegId-mkId&pgId=2102&rpp=250'
p27
aS'http://www.cars.com/for-sale/searchresults.action?PMmt=1-1-0&crSrtFlds=feedSegId&feedSegId=28705&isDealerGrouping=false&rpp=100&sf1Dir=DESC&sf1Nm=actualPhotoCount&sf2Dir=DESC&sf2Nm=price&zc=48104&rd=99999&mkId=20088&mdId=20482&yrId=20136&yrId=20191&yrId=20192&yrId=20193&yrId=20137&yrId=20138&yrId=20194&yrId=20136&searchSource=GN_REFINEMENT'
p28
aS'http://www.cars.com/for-sale/searchresults.action?feedSegId=28705&rpp=250&photoId=46724&sf2Nm=price&requestorTrackingInfo=RTB_SEARCH&sf1Nm=modelYear&sf2Dir=DESC&stkTypId=28881&PMmt=1-2-0&zc=48105&rd=100000&mdId=53075&mdId=20884&mkId=20053&alMdId=30000861&sf1Dir=ASC&searchSource=UTILITY&crSrtFlds=stkTypId-feedSegId-mkId-mdId&pgId=2102&rn=250'
p29
aS'http://www.cars.com/for-sale/searchresults.action?PMmt=1-1-0&crSrtFlds=feedSegId-mkId&feedSegId=28705&isDealerGrouping=false&rpp=100&sf1Dir=DESC&sf1Nm=actualPhotoCount&sf2Dir=DESC&sf2Nm=price&zc=48104&rd=99999&mkId=20044&mdId=22313&yrId=58487&yrId=56007&yrId=58487&searchSource=GN_REFINEMENT'
p30
aS'http://www.cars.com/for-sale/searchresults.action?feedSegId=28705&rpp=250&sf2Nm=price&requestorTrackingInfo=RTB_SEARCH&sf1Nm=actualPhotoCount&sf2Dir=DESC&PMmt=1-5-0&zc=48104&rd=99999&mkId=20014&sf1Dir=DESC&searchSource=GN_BREADCRUMB&crSrtFlds=feedSegId&pgId=2102'
p31
aS'http://www.cars.com/for-sale/searchresults.action?PMmt=1-1-0&crSrtFlds=stkTypId-feedSegId-mkId&feedSegId=28705&isDealerGrouping=false&rpp=50&sf1Dir=DESC&sf1Nm=price&sf2Dir=ASC&sf2Nm=miles&zc=48105&rd=99999&stkTypId=28881&mkId=20052&mdId=52107&photoId=46724&searchSource=GN_REFINEMENT'
p32
aS'http://www.cars.com/for-sale/searchresults.action?PMmt=1-1-0&crSrtFlds=feedSegId&feedSegId=28705&isDealerGrouping=false&rpp=250&sf1Dir=DESC&sf1Nm=actualPhotoCount&sf2Dir=DESC&sf2Nm=price&zc=48104&rd=99999&mkId=20077&mdId=22171&bsId=20209&searchSource=GN_REFINEMENT'
p33
aS'http://www.cars.com/for-sale/searchresults.action?PMmt=1-1-0&crSrtFlds=feedSegId&feedSegId=28705&isDealerGrouping=false&rpp=250&sf1Dir=DESC&sf1Nm=actualPhotoCount&sf2Dir=DESC&sf2Nm=price&zc=48104&rd=99999&mkId=20081&mdId=20567&yrId=20140&yrId=20196&yrId=20141&yrId=20197&yrId=20142&yrId=20198&yrId=20179&yrId=20124&yrId=20180&yrId=20181&yrId=20127&yrId=20128&yrId=20183&yrId=20184&yrId=20129&yrId=20140&searchSource=GN_REFINEMENT'
p34
aS'http://www.cars.com/for-sale/searchresults.action?feedSegId=28705&sf2Nm=price&requestorTrackingInfo=RTB_SEARCH&yrId=58487&sf1Nm=actualPhotoCount&sf2Dir=DESC&PMmt=1-1-0&zc=48104&rd=99999&mdId=22380&mkId=20044&sf1Dir=DESC&searchSource=UTILITY&crSrtFlds=feedSegId-mkId&pgId=2102&rpp=100'
p35
aS'http://www.cars.com/for-sale/searchresults.action?PMmt=1-0-0&crSrtFlds=stkTypId-feedSegId-mkId&feedSegId=28705&isDealerGrouping=false&rpp=100&sf1Dir=DESC&sf1Nm=price&sf2Dir=ASC&sf2Nm=miles&zc=48105&rd=99999&stkTypId=28881&mkId=20052&photoId=46724&mdId=21887&searchSource=GN_REFINEMENT'
p36
a.