ccollections
defaultdict
p0
(c__builtin__
list
p1
tp2
Rp3
Vchevrolet_silverado_iii_crew__cab__pickup
p4
(lp5
Vhttp://images.cars.com/phototab/DMI/181017/T5591/32.jpg
p6
aVhttp://images.cars.com/phototab/DMI/181017/T5591/31.jpg
p7
aVhttp://images.cars.com/phototab/DMI/181017/T5591/30.jpg
p8
aVhttp://images.cars.com/phototab/DMI/181017/T5591/29.jpg
p9
aVhttp://images.cars.com/phototab/DMI/181017/T5591/28.jpg
p10
aVhttp://images.cars.com/phototab/DMI/181017/T5591/27.jpg
p11
aVhttp://images.cars.com/phototab/DMI/181017/T5591/23.jpg
p12
aVhttp://images.cars.com/phototab/DMI/181017/T5591/22.jpg
p13
aVhttp://images.cars.com/phototab/DMI/181017/T5591/20.jpg
p14
aVhttp://images.cars.com/phototab/DMI/181017/T5591/19.jpg
p15
aVhttp://images.cars.com/phototab/DMI/181017/T5591/18.jpg
p16
aVhttp://images.cars.com/phototab/DMI/181017/T5591/15.jpg
p17
aVhttp://images.cars.com/phototab/DMI/181017/T5591/13.jpg
p18
aVhttp://images.cars.com/phototab/DMI/181017/T5591/12.jpg
p19
aVhttp://images.cars.com/phototab/DMI/181017/T5591/11.jpg
p20
aVhttp://images.cars.com/phototab/DMI/181017/T5591/09.jpg
p21
aVhttp://images.cars.com/phototab/DMI/181017/T5591/08.jpg
p22
aVhttp://images.cars.com/phototab/DMI/182208/661243/32.jpg
p23
aVhttp://images.cars.com/phototab/DMI/182208/661243/30.jpg
p24
aVhttp://images.cars.com/phototab/DMI/182208/661243/24.jpg
p25
aVhttp://images.cars.com/phototab/DMI/182208/661243/22.jpg
p26
aVhttp://images.cars.com/phototab/DMI/182208/661243/21.jpg
p27
aVhttp://images.cars.com/phototab/DMI/182208/661243/20.jpg
p28
aVhttp://images.cars.com/phototab/DMI/182208/661243/18.jpg
p29
aVhttp://images.cars.com/phototab/DMI/182208/661243/17.jpg
p30
aVhttp://images.cars.com/phototab/DMI/182208/661243/16.jpg
p31
aVhttp://images.cars.com/phototab/DMI/182208/661243/15.jpg
p32
aVhttp://images.cars.com/phototab/DMI/182208/661243/13.jpg
p33
aVhttp://images.cars.com/phototab/DMI/182208/661243/10.jpg
p34
aVhttp://images.cars.com/phototab/DMI/182208/661243/08.jpg
p35
aVhttp://images.cars.com/phototab/DMI/182208/661243/07.jpg
p36
aVhttp://images.cars.com/phototab/DMI/182208/661243/01.jpg
p37
aVhttp://images.cars.com/phototab/DMI/182208/659248/32.jpg
p38
aVhttp://images.cars.com/phototab/DMI/182208/659248/31.jpg
p39
aVhttp://images.cars.com/phototab/DMI/182208/659248/30.jpg
p40
aVhttp://images.cars.com/phototab/DMI/182208/659248/27.jpg
p41
aVhttp://images.cars.com/phototab/DMI/182208/659248/25.jpg
p42
aVhttp://images.cars.com/phototab/DMI/182208/659248/24.jpg
p43
aVhttp://images.cars.com/phototab/DMI/182208/659248/23.jpg
p44
aVhttp://images.cars.com/phototab/DMI/182208/659248/22.jpg
p45
aVhttp://images.cars.com/phototab/DMI/182208/659248/21.jpg
p46
aVhttp://images.cars.com/phototab/DMI/182208/659248/19.jpg
p47
aVhttp://images.cars.com/phototab/DMI/182208/659248/17.jpg
p48
aVhttp://images.cars.com/phototab/DMI/182208/659248/15.jpg
p49
aVhttp://images.cars.com/phototab/DMI/182208/659248/14.jpg
p50
aVhttp://images.cars.com/phototab/DMI/182208/659248/12.jpg
p51
aVhttp://images.cars.com/phototab/DMI/182208/659248/11.jpg
p52
aVhttp://images.cars.com/phototab/DMI/182208/659248/07.jpg
p53
aVhttp://images.cars.com/phototab/DMI/182208/659248/05.jpg
p54
aVhttp://images.cars.com/phototab/DMI/182208/659248/02.jpg
p55
aVhttp://images.cars.com/phototab/DMI/182208/659248/01.jpg
p56
aVhttp://images.cars.com/phototab/DMI/21227/FF626572/26.jpg
p57
aVhttp://images.cars.com/phototab/DMI/21227/FF626572/23.jpg
p58
aVhttp://images.cars.com/phototab/DMI/21227/FF626572/22.jpg
p59
aVhttp://images.cars.com/phototab/DMI/21227/FF626572/20.jpg
p60
aVhttp://images.cars.com/phototab/DMI/21227/FF626572/14.jpg
p61
aVhttp://images.cars.com/phototab/DMI/21227/FF626572/13.jpg
p62
aVhttp://images.cars.com/phototab/DMI/21227/FF626572/12.jpg
p63
aVhttp://images.cars.com/phototab/DMI/21227/FF626572/10.jpg
p64
aVhttp://images.cars.com/phototab/DMI/21227/FF626572/09.jpg
p65
aVhttp://images.cars.com/phototab/DMI/21227/FF626572/06.jpg
p66
aVhttp://images.cars.com/phototab/DMI/21227/FF626572/05.jpg
p67
aVhttp://images.cars.com/phototab/DMI/21227/FF626572/03.jpg
p68
aVhttp://images.cars.com/phototab/DMI/21227/FF626572/01.jpg
p69
aVhttp://images.cars.com/phototab/DMI/182208/661243/11.jpg
p70
aVhttp://images.cars.com/phototab/DMI/149746/15X0804I/32.jpg
p71
aVhttp://images.cars.com/phototab/DMI/149746/15X0804I/31.jpg
p72
aVhttp://images.cars.com/phototab/DMI/149746/15X0804I/28.jpg
p73
aVhttp://images.cars.com/phototab/DMI/149746/15X0804I/26.jpg
p74
aVhttp://images.cars.com/phototab/DMI/149746/15X0804I/25.jpg
p75
aVhttp://images.cars.com/phototab/DMI/149746/15X0804I/23.jpg
p76
aVhttp://images.cars.com/phototab/DMI/149746/15X0804I/21.jpg
p77
aVhttp://images.cars.com/phototab/DMI/149746/15X0804I/20.jpg
p78
aVhttp://images.cars.com/phototab/DMI/149746/15X0804I/18.jpg
p79
aVhttp://images.cars.com/phototab/DMI/149746/15X0804I/16.jpg
p80
aVhttp://images.cars.com/phototab/DMI/149746/15X0804I/15.jpg
p81
aVhttp://images.cars.com/phototab/DMI/149746/15X0804I/11.jpg
p82
aVhttp://images.cars.com/phototab/DMI/149746/15X0804I/10.jpg
p83
aVhttp://images.cars.com/phototab/DMI/149746/15X0804I/06.jpg
p84
aVhttp://images.cars.com/phototab/DMI/149746/15X0804I/05.jpg
p85
aVhttp://images.cars.com/phototab/DMI/149746/15X0804I/04.jpg
p86
aVhttp://images.cars.com/phototab/DMI/109839/CT15481/32.jpg
p87
aVhttp://images.cars.com/phototab/DMI/181017/T5591/05.jpg
p88
aVhttp://images.cars.com/phototab/DMI/109839/CT15481/29.jpg
p89
aVhttp://images.cars.com/phototab/DMI/109839/CT15481/28.jpg
p90
aVhttp://images.cars.com/phototab/DMI/109839/CT15481/27.jpg
p91
aVhttp://images.cars.com/phototab/DMI/109839/CT15481/24.jpg
p92
aVhttp://images.cars.com/phototab/DMI/109839/CT15481/23.jpg
p93
aVhttp://images.cars.com/phototab/DMI/109839/CT15481/22.jpg
p94
aVhttp://images.cars.com/phototab/DMI/109839/CT15481/21.jpg
p95
aVhttp://images.cars.com/phototab/DMI/109839/CT15481/18.jpg
p96
aVhttp://images.cars.com/phototab/DMI/109839/CT15481/16.jpg
p97
aVhttp://images.cars.com/phototab/DMI/109839/CT15481/13.jpg
p98
aVhttp://images.cars.com/phototab/DMI/109839/CT15481/10.jpg
p99
aVhttp://images.cars.com/phototab/DMI/109839/CT15481/09.jpg
p100
aVhttp://images.cars.com/phototab/DMI/109839/CT15481/08.jpg
p101
aVhttp://images.cars.com/phototab/DMI/109839/CT15481/07.jpg
p102
aVhttp://images.cars.com/phototab/DMI/109839/CT15481/06.jpg
p103
aVhttp://images.cars.com/phototab/DMI/109839/CT15481/02.jpg
p104
aVhttp://images.cars.com/phototab/DMI/89025/T152158/28.jpg
p105
aVhttp://images.cars.com/phototab/DMI/89025/T152158/27.jpg
p106
aVhttp://images.cars.com/phototab/DMI/89025/T152158/23.jpg
p107
aVhttp://images.cars.com/phototab/DMI/89025/T152158/22.jpg
p108
aVhttp://images.cars.com/phototab/DMI/89025/T152158/16.jpg
p109
aVhttp://images.cars.com/phototab/DMI/89025/T152158/14.jpg
p110
aVhttp://images.cars.com/phototab/DMI/89025/T152158/13.jpg
p111
aVhttp://images.cars.com/phototab/DMI/89025/T152158/12.jpg
p112
aVhttp://images.cars.com/phototab/DMI/89025/T152158/11.jpg
p113
aVhttp://images.cars.com/phototab/DMI/89025/T152158/10.jpg
p114
aVhttp://images.cars.com/phototab/DMI/89025/T152158/09.jpg
p115
aVhttp://images.cars.com/phototab/DMI/89025/T152158/08.jpg
p116
aVhttp://images.cars.com/phototab/DMI/89025/T152158/06.jpg
p117
aVhttp://images.cars.com/phototab/DMI/89025/T152158/04.jpg
p118
aVhttp://images.cars.com/phototab/DMI/89025/T152158/03.jpg
p119
aVhttp://images.cars.com/phototab/DMI/89025/T152158/01.jpg
p120
aVhttp://images.cars.com/phototab/DMI/89025/T152142/32.jpg
p121
aVhttp://images.cars.com/phototab/DMI/182208/659248/16.jpg
p122
aVhttp://images.cars.com/phototab/DMI/89025/T152142/24.jpg
p123
aVhttp://images.cars.com/phototab/DMI/89025/T152142/23.jpg
p124
aVhttp://images.cars.com/phototab/DMI/89025/T152142/22.jpg
p125
aVhttp://images.cars.com/phototab/DMI/89025/T152142/21.jpg
p126
aVhttp://images.cars.com/phototab/DMI/89025/T152142/20.jpg
p127
aVhttp://images.cars.com/phototab/DMI/89025/T152142/19.jpg
p128
aVhttp://images.cars.com/phototab/DMI/89025/T152142/17.jpg
p129
aVhttp://images.cars.com/phototab/DMI/89025/T152142/15.jpg
p130
aVhttp://images.cars.com/phototab/DMI/89025/T152142/10.jpg
p131
aVhttp://images.cars.com/phototab/DMI/89025/T152142/09.jpg
p132
aVhttp://images.cars.com/phototab/DMI/89025/T152142/08.jpg
p133
aVhttp://images.cars.com/phototab/DMI/89025/T152142/06.jpg
p134
aVhttp://images.cars.com/phototab/DMI/89025/T152142/05.jpg
p135
aVhttp://images.cars.com/phototab/DMI/89025/T152142/02.jpg
p136
aVhttp://images.cars.com/phototab/DMI/89025/T152142/01.jpg
p137
aVhttp://images.cars.com/phototab/DMI/89025/T152134/32.jpg
p138
aVhttp://images.cars.com/phototab/DMI/89025/T152134/31.jpg
p139
aVhttp://images.cars.com/phototab/DMI/89025/T152134/30.jpg
p140
aVhttp://images.cars.com/phototab/DMI/89025/T152134/28.jpg
p141
aVhttp://images.cars.com/phototab/DMI/89025/T152134/25.jpg
p142
aVhttp://images.cars.com/phototab/DMI/89025/T152134/23.jpg
p143
aVhttp://images.cars.com/phototab/DMI/89025/T152134/20.jpg
p144
aVhttp://images.cars.com/phototab/DMI/89025/T152134/18.jpg
p145
aVhttp://images.cars.com/phototab/DMI/89025/T152134/17.jpg
p146
aVhttp://images.cars.com/phototab/DMI/89025/T152134/16.jpg
p147
aVhttp://images.cars.com/phototab/DMI/89025/T152134/15.jpg
p148
aVhttp://images.cars.com/phototab/DMI/89025/T152134/14.jpg
p149
aVhttp://images.cars.com/phototab/DMI/89025/T152134/12.jpg
p150
aVhttp://images.cars.com/phototab/DMI/89025/T152134/11.jpg
p151
aVhttp://images.cars.com/phototab/DMI/89025/T152134/10.jpg
p152
aVhttp://images.cars.com/phototab/DMI/89025/T152134/07.jpg
p153
aVhttp://images.cars.com/phototab/DMI/89025/T152134/06.jpg
p154
aVhttp://images.cars.com/phototab/DMI/89025/T152134/05.jpg
p155
aVhttp://images.cars.com/phototab/DMI/89025/T152134/03.jpg
p156
aVhttp://images.cars.com/phototab/DMI/89025/T152134/01.jpg
p157
aVhttp://images.cars.com/phototab/DMI/89025/T152119/32.jpg
p158
aVhttp://images.cars.com/phototab/DMI/89025/T152119/30.jpg
p159
aVhttp://images.cars.com/phototab/DMI/89025/T152119/28.jpg
p160
aVhttp://images.cars.com/phototab/DMI/89025/T152119/27.jpg
p161
aVhttp://images.cars.com/phototab/DMI/89025/T152119/26.jpg
p162
aVhttp://images.cars.com/phototab/DMI/89025/T152134/26.jpg
p163
aVhttp://images.cars.com/phototab/DMI/89025/T152119/25.jpg
p164
aVhttp://images.cars.com/phototab/DMI/89025/T152119/22.jpg
p165
aVhttp://images.cars.com/phototab/DMI/89025/T152119/17.jpg
p166
aVhttp://images.cars.com/phototab/DMI/89025/T152119/16.jpg
p167
aVhttp://images.cars.com/phototab/DMI/89025/T152119/14.jpg
p168
aVhttp://images.cars.com/phototab/DMI/89025/T152119/13.jpg
p169
aVhttp://images.cars.com/phototab/DMI/89025/T152119/12.jpg
p170
aVhttp://images.cars.com/phototab/DMI/89025/T152119/11.jpg
p171
aVhttp://images.cars.com/phototab/DMI/89025/T152119/09.jpg
p172
aVhttp://images.cars.com/phototab/DMI/89025/T152119/04.jpg
p173
aVhttp://images.cars.com/phototab/DMI/89025/T152119/01.jpg
p174
aVhttp://images.cars.com/phototab/DMI/15134/F1102/32.jpg
p175
aVhttp://images.cars.com/phototab/DMI/15134/F1102/30.jpg
p176
aVhttp://images.cars.com/phototab/DMI/15134/F1102/28.jpg
p177
aVhttp://images.cars.com/phototab/DMI/15134/F1102/26.jpg
p178
aVhttp://images.cars.com/phototab/DMI/15134/F1102/25.jpg
p179
aVhttp://images.cars.com/phototab/DMI/15134/F1102/19.jpg
p180
aVhttp://images.cars.com/phototab/DMI/15134/F1102/18.jpg
p181
aVhttp://images.cars.com/phototab/DMI/15134/F1102/17.jpg
p182
aVhttp://images.cars.com/phototab/DMI/15134/F1102/16.jpg
p183
aVhttp://images.cars.com/phototab/DMI/15134/F1102/14.jpg
p184
aVhttp://images.cars.com/phototab/DMI/15134/F1102/13.jpg
p185
aVhttp://images.cars.com/phototab/DMI/15134/F1102/12.jpg
p186
aVhttp://images.cars.com/phototab/DMI/15134/F1102/10.jpg
p187
aVhttp://images.cars.com/phototab/DMI/15134/F1102/09.jpg
p188
aVhttp://images.cars.com/phototab/DMI/15134/F1102/08.jpg
p189
aVhttp://images.cars.com/phototab/DMI/151261/602375/32.jpg
p190
aVhttp://images.cars.com/phototab/DMI/151261/602375/25.jpg
p191
aVhttp://images.cars.com/phototab/DMI/151261/602375/24.jpg
p192
aVhttp://images.cars.com/phototab/DMI/151261/602375/22.jpg
p193
aVhttp://images.cars.com/phototab/DMI/151261/602375/21.jpg
p194
aVhttp://images.cars.com/phototab/DMI/151261/602375/19.jpg
p195
aVhttp://images.cars.com/phototab/DMI/151261/602375/18.jpg
p196
aVhttp://images.cars.com/phototab/DMI/151261/602375/17.jpg
p197
aVhttp://images.cars.com/phototab/DMI/151261/602375/16.jpg
p198
aVhttp://images.cars.com/phototab/DMI/151261/602375/15.jpg
p199
aVhttp://images.cars.com/phototab/DMI/151261/602375/12.jpg
p200
aVhttp://images.cars.com/phototab/DMI/151261/602375/09.jpg
p201
aVhttp://images.cars.com/phototab/DMI/89025/T152158/02.jpg
p202
aVhttp://images.cars.com/phototab/DMI/151261/602375/07.jpg
p203
aVhttp://images.cars.com/phototab/DMI/151261/602375/06.jpg
p204
aVhttp://images.cars.com/phototab/DMI/151261/602375/05.jpg
p205
aVhttp://images.cars.com/phototab/DMI/151261/602375/04.jpg
p206
aVhttp://images.cars.com/phototab/DMI/151261/602375/03.jpg
p207
aVhttp://images.cars.com/phototab/DMI/151261/602375/01.jpg
p208
aVhttp://images.cars.com/phototab/DMI/5243226/CT5304/30.jpg
p209
aVhttp://images.cars.com/phototab/DMI/5243226/CT5304/26.jpg
p210
aVhttp://images.cars.com/phototab/DMI/5243226/CT5304/24.jpg
p211
aVhttp://images.cars.com/phototab/DMI/5243226/CT5304/22.jpg
p212
aVhttp://images.cars.com/phototab/DMI/5243226/CT5304/20.jpg
p213
aVhttp://images.cars.com/phototab/DMI/5243226/CT5304/17.jpg
p214
aVhttp://images.cars.com/phototab/DMI/5243226/CT5304/14.jpg
p215
aVhttp://images.cars.com/phototab/DMI/5243226/CT5304/12.jpg
p216
aVhttp://images.cars.com/phototab/DMI/5243226/CT5304/09.jpg
p217
aVhttp://images.cars.com/phototab/DMI/5243226/CT5304/08.jpg
p218
aVhttp://images.cars.com/phototab/DMI/5243226/CT5304/07.jpg
p219
aVhttp://images.cars.com/phototab/DMI/5243226/CT5304/06.jpg
p220
aVhttp://images.cars.com/phototab/DMI/5243226/CT5304/02.jpg
p221
aVhttp://images.cars.com/phototab/DMI/5243226/CT5304/01.jpg
p222
aVhttp://images.cars.com/phototab/DMI/21227/FF593702/32.jpg
p223
aVhttp://images.cars.com/phototab/DMI/21227/FF593702/29.jpg
p224
aVhttp://images.cars.com/phototab/DMI/21227/FF593702/28.jpg
p225
aVhttp://images.cars.com/phototab/DMI/21227/FF593702/27.jpg
p226
aVhttp://images.cars.com/phototab/DMI/21227/FF593702/25.jpg
p227
aVhttp://images.cars.com/phototab/DMI/21227/FF593702/23.jpg
p228
aVhttp://images.cars.com/phototab/DMI/21227/FF593702/21.jpg
p229
aVhttp://images.cars.com/phototab/DMI/21227/FF593702/20.jpg
p230
aVhttp://images.cars.com/phototab/DMI/21227/FF593702/18.jpg
p231
aVhttp://images.cars.com/phototab/DMI/21227/FF593702/17.jpg
p232
aVhttp://images.cars.com/phototab/DMI/21227/FF593702/16.jpg
p233
aVhttp://images.cars.com/phototab/DMI/21227/FF593702/14.jpg
p234
aVhttp://images.cars.com/phototab/DMI/89025/T152142/18.jpg
p235
aVhttp://images.cars.com/phototab/DMI/21227/FF593702/12.jpg
p236
aVhttp://images.cars.com/phototab/DMI/21227/FF593702/11.jpg
p237
aVhttp://images.cars.com/phototab/DMI/21227/FF593702/10.jpg
p238
aVhttp://images.cars.com/phototab/DMI/182208/659248/10.jpg
p239
aVhttp://images.cars.com/phototab/DMI/21227/FF593702/09.jpg
p240
aVhttp://images.cars.com/phototab/DMI/21227/FF593702/07.jpg
p241
aVhttp://images.cars.com/phototab/DMI/21227/FF593702/05.jpg
p242
aVhttp://images.cars.com/phototab/DMI/157672/150708/32.jpg
p243
aVhttp://images.cars.com/phototab/DMI/157672/150708/31.jpg
p244
aVhttp://images.cars.com/phototab/DMI/157672/150708/29.jpg
p245
aVhttp://images.cars.com/phototab/DMI/157672/150708/25.jpg
p246
aVhttp://images.cars.com/phototab/DMI/157672/150708/24.jpg
p247
aVhttp://images.cars.com/phototab/DMI/157672/150708/23.jpg
p248
aVhttp://images.cars.com/phototab/DMI/157672/150708/22.jpg
p249
aVhttp://images.cars.com/phototab/DMI/157672/150708/20.jpg
p250
aVhttp://images.cars.com/phototab/DMI/157672/150708/17.jpg
p251
aVhttp://images.cars.com/phototab/DMI/157672/150708/16.jpg
p252
aVhttp://images.cars.com/phototab/DMI/21227/FF593702/08.jpg
p253
aVhttp://images.cars.com/phototab/DMI/157672/150708/12.jpg
p254
aVhttp://images.cars.com/phototab/DMI/157672/150708/11.jpg
p255
aVhttp://images.cars.com/phototab/DMI/157672/150708/07.jpg
p256
aVhttp://images.cars.com/phototab/DMI/157672/150708/06.jpg
p257
aVhttp://images.cars.com/phototab/DMI/157672/150708/02.jpg
p258
aVhttp://images.cars.com/phototab/DMI/170863/FF555621/26.jpg
p259
aVhttp://images.cars.com/phototab/DMI/170863/FF555621/24.jpg
p260
aVhttp://images.cars.com/phototab/DMI/170863/FF555621/21.jpg
p261
aVhttp://images.cars.com/phototab/DMI/170863/FF555621/18.jpg
p262
aVhttp://images.cars.com/phototab/DMI/170863/FF555621/15.jpg
p263
aVhttp://images.cars.com/phototab/DMI/170863/FF555621/14.jpg
p264
aVhttp://images.cars.com/phototab/DMI/170863/FF555621/12.jpg
p265
aVhttp://images.cars.com/phototab/DMI/170863/FF555621/10.jpg
p266
aVhttp://images.cars.com/phototab/DMI/170863/FF555621/07.jpg
p267
aVhttp://images.cars.com/phototab/DMI/170863/FF555621/03.jpg
p268
aVhttp://images.cars.com/phototab/DMI/170863/FF555621/02.jpg
p269
aVhttp://images.cars.com/phototab/DMI/180130/T55932/32.jpg
p270
aVhttp://images.cars.com/phototab/DMI/180130/T55932/30.jpg
p271
aVhttp://images.cars.com/phototab/DMI/180130/T55932/28.jpg
p272
aVhttp://images.cars.com/phototab/DMI/180130/T55932/27.jpg
p273
aVhttp://images.cars.com/phototab/DMI/180130/T55932/22.jpg
p274
aVhttp://images.cars.com/phototab/DMI/180130/T55932/20.jpg
p275
aVhttp://images.cars.com/phototab/DMI/180130/T55932/19.jpg
p276
aVhttp://images.cars.com/phototab/DMI/182208/661243/09.jpg
p277
aVhttp://images.cars.com/phototab/DMI/180130/T55932/18.jpg
p278
aVhttp://images.cars.com/phototab/DMI/180130/T55932/17.jpg
p279
aVhttp://images.cars.com/phototab/DMI/180130/T55932/14.jpg
p280
aVhttp://images.cars.com/phototab/DMI/180130/T55932/13.jpg
p281
aVhttp://images.cars.com/phototab/DMI/180130/T55932/10.jpg
p282
aVhttp://images.cars.com/phototab/DMI/180130/T55932/09.jpg
p283
aVhttp://images.cars.com/phototab/DMI/180130/T55932/08.jpg
p284
aVhttp://images.cars.com/phototab/DMI/180130/T55932/03.jpg
p285
aVhttp://images.cars.com/phototab/DMI/180130/T55932/02.jpg
p286
aVhttp://images.cars.com/phototab/DMI/193596/G102088/32.jpg
p287
aVhttp://images.cars.com/phototab/DMI/193596/G102088/31.jpg
p288
aVhttp://images.cars.com/phototab/DMI/193596/G102088/29.jpg
p289
aVhttp://images.cars.com/phototab/DMI/193596/G102088/25.jpg
p290
aVhttp://images.cars.com/phototab/DMI/193596/G102088/23.jpg
p291
aVhttp://images.cars.com/phototab/DMI/193596/G102088/21.jpg
p292
aVhttp://images.cars.com/phototab/DMI/193596/G102088/20.jpg
p293
aVhttp://images.cars.com/phototab/DMI/193596/G102088/19.jpg
p294
aVhttp://images.cars.com/phototab/DMI/193596/G102088/17.jpg
p295
aVhttp://images.cars.com/phototab/DMI/193596/G102088/15.jpg
p296
aVhttp://images.cars.com/phototab/DMI/193596/G102088/13.jpg
p297
aVhttp://images.cars.com/phototab/DMI/193596/G102088/07.jpg
p298
aVhttp://images.cars.com/phototab/DMI/193596/G102088/06.jpg
p299
aVhttp://images.cars.com/phototab/DMI/193596/G102088/05.jpg
p300
aVhttp://images.cars.com/phototab/DMI/193596/G102088/03.jpg
p301
aVhttp://images.cars.com/phototab/DMI/193596/G102088/02.jpg
p302
aVhttp://images.cars.com/phototab/DMI/193596/G102088/01.jpg
p303
aVhttp://images.cars.com/phototab/DMI/156286/2FG249154/30.jpg
p304
aVhttp://images.cars.com/phototab/DMI/156286/2FG249154/29.jpg
p305
aVhttp://images.cars.com/phototab/DMI/156286/2FG249154/28.jpg
p306
aVhttp://images.cars.com/phototab/DMI/156286/2FG249154/27.jpg
p307
aVhttp://images.cars.com/phototab/DMI/156286/2FG249154/26.jpg
p308
aVhttp://images.cars.com/phototab/DMI/156286/2FG249154/25.jpg
p309
aVhttp://images.cars.com/phototab/DMI/156286/2FG249154/24.jpg
p310
aVhttp://images.cars.com/phototab/DMI/156286/2FG249154/20.jpg
p311
aVhttp://images.cars.com/phototab/DMI/149746/15X0804I/12.jpg
p312
aVhttp://images.cars.com/phototab/DMI/156286/2FG249154/18.jpg
p313
aVhttp://images.cars.com/phototab/DMI/156286/2FG249154/17.jpg
p314
aVhttp://images.cars.com/phototab/DMI/156286/2FG249154/16.jpg
p315
aVhttp://images.cars.com/phototab/DMI/156286/2FG249154/15.jpg
p316
aVhttp://images.cars.com/phototab/DMI/156286/2FG249154/11.jpg
p317
aVhttp://images.cars.com/phototab/DMI/156286/2FG249154/09.jpg
p318
aVhttp://images.cars.com/phototab/DMI/156286/2FG249154/08.jpg
p319
aVhttp://images.cars.com/phototab/DMI/156286/2FG249154/05.jpg
p320
aVhttp://images.cars.com/phototab/DMI/156286/2FG249154/02.jpg
p321
aVhttp://images.cars.com/phototab/DMI/156286/2FG249154/01.jpg
p322
aVhttp://images.cars.com/phototab/DMI/193596/G102088/10.jpg
p323
aVhttp://images.cars.com/phototab/DMI/146955/G343383/30.jpg
p324
aVhttp://images.cars.com/phototab/DMI/146955/G343383/29.jpg
p325
aVhttp://images.cars.com/phototab/DMI/146955/G343383/26.jpg
p326
aVhttp://images.cars.com/phototab/DMI/146955/G343383/25.jpg
p327
aVhttp://images.cars.com/phototab/DMI/146955/G343383/24.jpg
p328
aVhttp://images.cars.com/phototab/DMI/146955/G343383/23.jpg
p329
aVhttp://images.cars.com/phototab/DMI/146955/G343383/22.jpg
p330
aVhttp://images.cars.com/phototab/DMI/146955/G343383/20.jpg
p331
aVhttp://images.cars.com/phototab/DMI/146955/G343383/18.jpg
p332
aVhttp://images.cars.com/phototab/DMI/146955/G343383/16.jpg
p333
aVhttp://images.cars.com/phototab/DMI/146955/G343383/14.jpg
p334
aVhttp://images.cars.com/phototab/DMI/146955/G343383/13.jpg
p335
aVhttp://images.cars.com/phototab/DMI/146955/G343383/12.jpg
p336
aVhttp://images.cars.com/phototab/DMI/146955/G343383/11.jpg
p337
aVhttp://images.cars.com/phototab/DMI/146955/G343383/08.jpg
p338
aVhttp://images.cars.com/phototab/DMI/146955/G343383/07.jpg
p339
aVhttp://images.cars.com/phototab/DMI/146955/G343383/06.jpg
p340
aVhttp://images.cars.com/phototab/DMI/146955/G343383/05.jpg
p341
aVhttp://images.cars.com/phototab/DMI/146955/G343383/04.jpg
p342
aVhttp://images.cars.com/phototab/DMI/146955/G343383/03.jpg
p343
aVhttp://images.cars.com/phototab/DMI/207950/13191/32.jpg
p344
aVhttp://images.cars.com/phototab/DMI/207950/13191/30.jpg
p345
aVhttp://images.cars.com/phototab/DMI/207950/13191/29.jpg
p346
aVhttp://images.cars.com/phototab/DMI/207950/13191/28.jpg
p347
aVhttp://images.cars.com/phototab/DMI/207950/13191/25.jpg
p348
aVhttp://images.cars.com/phototab/DMI/207950/13191/24.jpg
p349
aVhttp://images.cars.com/phototab/DMI/207950/13191/22.jpg
p350
aVhttp://images.cars.com/phototab/DMI/207950/13191/19.jpg
p351
aVhttp://images.cars.com/phototab/DMI/207950/13191/16.jpg
p352
aVhttp://images.cars.com/phototab/DMI/207950/13191/14.jpg
p353
aVhttp://images.cars.com/phototab/DMI/207950/13191/13.jpg
p354
aVhttp://images.cars.com/phototab/DMI/207950/13191/12.jpg
p355
aVhttp://images.cars.com/phototab/DMI/15134/F1102/05.jpg
p356
aVhttp://images.cars.com/phototab/DMI/207950/13191/09.jpg
p357
aVhttp://images.cars.com/phototab/DMI/109839/CT15481/31.jpg
p358
aVhttp://images.cars.com/phototab/DMI/207950/13191/08.jpg
p359
aVhttp://images.cars.com/phototab/DMI/207950/13191/06.jpg
p360
aVhttp://images.cars.com/phototab/DMI/207950/13191/04.jpg
p361
aVhttp://images.cars.com/phototab/DMI/207950/13191/03.jpg
p362
aVhttp://images.cars.com/phototab/DMI/207950/13191/01.jpg
p363
aVhttp://images.cars.com/phototab/DMI/181088/T1586/30.jpg
p364
aVhttp://images.cars.com/phototab/DMI/181088/T1586/29.jpg
p365
aVhttp://images.cars.com/phototab/DMI/181088/T1586/28.jpg
p366
aVhttp://images.cars.com/phototab/DMI/89025/T152158/29.jpg
p367
aVhttp://images.cars.com/phototab/DMI/181088/T1586/26.jpg
p368
aVhttp://images.cars.com/phototab/DMI/181088/T1586/24.jpg
p369
aVhttp://images.cars.com/phototab/DMI/181088/T1586/23.jpg
p370
aVhttp://images.cars.com/phototab/DMI/181088/T1586/22.jpg
p371
aVhttp://images.cars.com/phototab/DMI/181088/T1586/18.jpg
p372
aVhttp://images.cars.com/phototab/DMI/181088/T1586/16.jpg
p373
aVhttp://images.cars.com/phototab/DMI/181088/T1586/11.jpg
p374
aVhttp://images.cars.com/phototab/DMI/181088/T1586/10.jpg
p375
aVhttp://images.cars.com/phototab/DMI/181088/T1586/06.jpg
p376
aVhttp://images.cars.com/phototab/DMI/181088/T1586/05.jpg
p377
aVhttp://images.cars.com/phototab/DMI/89025/T152119/19.jpg
p378
aVhttp://images.cars.com/phototab/DMI/181088/T1586/04.jpg
p379
aVhttp://images.cars.com/phototab/DMI/181088/T1586/03.jpg
p380
aVhttp://images.cars.com/phototab/DMI/181088/T1586/02.jpg
p381
aVhttp://images.cars.com/phototab/DMI/181088/T1586/01.jpg
p382
aVhttp://images.cars.com/phototab/DMI/173299/C154230/30.jpg
p383
aVhttp://images.cars.com/phototab/DMI/173299/C154230/28.jpg
p384
aVhttp://images.cars.com/phototab/DMI/173299/C154230/26.jpg
p385
aVhttp://images.cars.com/phototab/DMI/173299/C154230/20.jpg
p386
aVhttp://images.cars.com/phototab/DMI/173299/C154230/17.jpg
p387
aVhttp://images.cars.com/phototab/DMI/173299/C154230/16.jpg
p388
aVhttp://images.cars.com/phototab/DMI/173299/C154230/15.jpg
p389
aVhttp://images.cars.com/phototab/DMI/173299/C154230/13.jpg
p390
aVhttp://images.cars.com/phototab/DMI/173299/C154230/12.jpg
p391
aVhttp://images.cars.com/phototab/DMI/173299/C154230/11.jpg
p392
aVhttp://images.cars.com/phototab/DMI/173299/C154230/06.jpg
p393
aVhttp://images.cars.com/phototab/DMI/173299/C154230/05.jpg
p394
aVhttp://images.cars.com/phototab/DMI/173299/C154230/04.jpg
p395
aVhttp://images.cars.com/phototab/DMI/173299/C154230/02.jpg
p396
aVhttp://images.cars.com/phototab/DMI/148074/FF629051/32.jpg
p397
aVhttp://images.cars.com/phototab/DMI/148074/FF629051/30.jpg
p398
aVhttp://images.cars.com/phototab/DMI/148074/FF629051/29.jpg
p399
aVhttp://images.cars.com/phototab/DMI/148074/FF629051/27.jpg
p400
aVhttp://images.cars.com/phototab/DMI/148074/FF629051/26.jpg
p401
aVhttp://images.cars.com/phototab/DMI/148074/FF629051/25.jpg
p402
aVhttp://images.cars.com/phototab/DMI/148074/FF629051/24.jpg
p403
aVhttp://images.cars.com/phototab/DMI/148074/FF629051/23.jpg
p404
aVhttp://images.cars.com/phototab/DMI/148074/FF629051/22.jpg
p405
aVhttp://images.cars.com/phototab/DMI/148074/FF629051/19.jpg
p406
aVhttp://images.cars.com/phototab/DMI/148074/FF629051/15.jpg
p407
aVhttp://images.cars.com/phototab/DMI/148074/FF629051/14.jpg
p408
aVhttp://images.cars.com/phototab/DMI/148074/FF629051/10.jpg
p409
aVhttp://images.cars.com/phototab/DMI/148074/FF629051/08.jpg
p410
aVhttp://images.cars.com/phototab/DMI/148074/FF629051/07.jpg
p411
aVhttp://images.cars.com/phototab/DMI/148074/FF629051/06.jpg
p412
aVhttp://images.cars.com/phototab/DMI/148074/FF629051/05.jpg
p413
aVhttp://images.cars.com/phototab/DMI/148074/FF629051/04.jpg
p414
aVhttp://images.cars.com/phototab/DMI/148074/FF629051/02.jpg
p415
aVhttp://images.cars.com/phototab/DMI/148074/FF629051/01.jpg
p416
aVhttp://images.cars.com/phototab/DMI/2319/152885/32.jpg
p417
aVhttp://images.cars.com/phototab/DMI/2319/152885/27.jpg
p418
aVhttp://images.cars.com/phototab/DMI/2319/152885/26.jpg
p419
aVhttp://images.cars.com/phototab/DMI/2319/152885/24.jpg
p420
aVhttp://images.cars.com/phototab/DMI/2319/152885/23.jpg
p421
aVhttp://images.cars.com/phototab/DMI/2319/152885/22.jpg
p422
aVhttp://images.cars.com/phototab/DMI/2319/152885/21.jpg
p423
aVhttp://images.cars.com/phototab/DMI/2319/152885/17.jpg
p424
aVhttp://images.cars.com/phototab/DMI/2319/152885/14.jpg
p425
aVhttp://images.cars.com/phototab/DMI/156286/2FG249154/10.jpg
p426
aVhttp://images.cars.com/phototab/DMI/2319/152885/13.jpg
p427
aVhttp://images.cars.com/phototab/DMI/2319/152885/11.jpg
p428
aVhttp://images.cars.com/phototab/DMI/2319/152885/09.jpg
p429
aVhttp://images.cars.com/phototab/DMI/2319/152885/08.jpg
p430
aVhttp://images.cars.com/phototab/DMI/2319/152885/06.jpg
p431
aVhttp://images.cars.com/phototab/DMI/2319/152885/05.jpg
p432
aVhttp://images.cars.com/phototab/DMI/2319/152885/03.jpg
p433
aVhttp://images.cars.com/phototab/DMI/2319/152885/02.jpg
p434
aVhttp://images.cars.com/phototab/DMI/2319/152885/01.jpg
p435
aVhttp://images.cars.com/phototab/DMI/5362784/C150629/32.jpg
p436
aVhttp://images.cars.com/phototab/DMI/5362784/C150629/31.jpg
p437
aVhttp://images.cars.com/phototab/DMI/5362784/C150629/30.jpg
p438
aVhttp://images.cars.com/phototab/DMI/5362784/C150629/29.jpg
p439
aVhttp://images.cars.com/phototab/DMI/5362784/C150629/27.jpg
p440
aVhttp://images.cars.com/phototab/DMI/5362784/C150629/24.jpg
p441
aVhttp://images.cars.com/phototab/DMI/5362784/C150629/21.jpg
p442
aVhttp://images.cars.com/phototab/DMI/5362784/C150629/19.jpg
p443
aVhttp://images.cars.com/phototab/DMI/5362784/C150629/18.jpg
p444
aVhttp://images.cars.com/phototab/DMI/5362784/C150629/16.jpg
p445
aVhttp://images.cars.com/phototab/DMI/5362784/C150629/15.jpg
p446
aVhttp://images.cars.com/phototab/DMI/5362784/C150629/13.jpg
p447
aVhttp://images.cars.com/phototab/DMI/5362784/C150629/11.jpg
p448
aVhttp://images.cars.com/phototab/DMI/5362784/C150629/10.jpg
p449
aVhttp://images.cars.com/phototab/DMI/5362784/C150629/09.jpg
p450
aVhttp://images.cars.com/phototab/DMI/5362784/C150629/07.jpg
p451
aVhttp://images.cars.com/phototab/DMI/5362784/C150629/04.jpg
p452
aVhttp://images.cars.com/phototab/DMI/5362784/C150629/01.jpg
p453
aVhttp://images.cars.com/phototab/DMI/193059/FH1323/32.jpg
p454
aVhttp://images.cars.com/phototab/DMI/193059/FH1323/31.jpg
p455
aVhttp://images.cars.com/phototab/DMI/193059/FH1323/30.jpg
p456
aVhttp://images.cars.com/phototab/DMI/170863/FF555621/11.jpg
p457
aVhttp://images.cars.com/phototab/DMI/193059/FH1323/29.jpg
p458
aVhttp://images.cars.com/phototab/DMI/193059/FH1323/27.jpg
p459
aVhttp://images.cars.com/phototab/DMI/193059/FH1323/26.jpg
p460
aVhttp://images.cars.com/phototab/DMI/193059/FH1323/21.jpg
p461
aVhttp://images.cars.com/phototab/DMI/193059/FH1323/20.jpg
p462
aVhttp://images.cars.com/phototab/DMI/193059/FH1323/16.jpg
p463
aVhttp://images.cars.com/phototab/DMI/193059/FH1323/15.jpg
p464
aVhttp://images.cars.com/phototab/DMI/193059/FH1323/14.jpg
p465
aVhttp://images.cars.com/phototab/DMI/193059/FH1323/13.jpg
p466
aVhttp://images.cars.com/phototab/DMI/193059/FH1323/11.jpg
p467
aVhttp://images.cars.com/phototab/DMI/193059/FH1323/10.jpg
p468
aVhttp://images.cars.com/phototab/DMI/193059/FH1323/09.jpg
p469
aVhttp://images.cars.com/phototab/DMI/193059/FH1323/05.jpg
p470
aVhttp://images.cars.com/phototab/DMI/193059/FH1323/01.jpg
p471
aVhttp://images.cars.com/phototab/DMI/149767/CN0803/32.jpg
p472
aVhttp://images.cars.com/phototab/DMI/149767/CN0803/31.jpg
p473
aVhttp://images.cars.com/phototab/DMI/149767/CN0803/30.jpg
p474
aVhttp://images.cars.com/phototab/DMI/149767/CN0803/29.jpg
p475
aVhttp://images.cars.com/phototab/DMI/149767/CN0803/28.jpg
p476
aVhttp://images.cars.com/phototab/DMI/149767/CN0803/27.jpg
p477
aVhttp://images.cars.com/phototab/DMI/149767/CN0803/25.jpg
p478
aVhttp://images.cars.com/phototab/DMI/149767/CN0803/22.jpg
p479
aVhttp://images.cars.com/phototab/DMI/149767/CN0803/21.jpg
p480
aVhttp://images.cars.com/phototab/DMI/149767/CN0803/19.jpg
p481
aVhttp://images.cars.com/phototab/DMI/149767/CN0803/18.jpg
p482
aVhttp://images.cars.com/phototab/DMI/149767/CN0803/17.jpg
p483
aVhttp://images.cars.com/phototab/DMI/149767/CN0803/16.jpg
p484
aVhttp://images.cars.com/phototab/DMI/149767/CN0803/15.jpg
p485
aVhttp://images.cars.com/phototab/DMI/149767/CN0803/13.jpg
p486
aVhttp://images.cars.com/phototab/DMI/149767/CN0803/12.jpg
p487
aVhttp://images.cars.com/phototab/DMI/149767/CN0803/03.jpg
p488
aVhttp://images.cars.com/phototab/DMI/5243226/CT5304/32.jpg
p489
aVhttp://images.cars.com/phototab/DMI/149767/CN0803/02.jpg
p490
aVhttp://images.cars.com/phototab/DMI/149767/CN0803/01.jpg
p491
aVhttp://images.cars.com/phototab/DMI/149767/CN0768/32.jpg
p492
aVhttp://images.cars.com/phototab/DMI/149767/CN0768/31.jpg
p493
aVhttp://images.cars.com/phototab/DMI/149767/CN0768/29.jpg
p494
aVhttp://images.cars.com/phototab/DMI/149767/CN0768/28.jpg
p495
aVhttp://images.cars.com/phototab/DMI/149767/CN0768/23.jpg
p496
aVhttp://images.cars.com/phototab/DMI/149767/CN0768/21.jpg
p497
aVhttp://images.cars.com/phototab/DMI/149767/CN0768/20.jpg
p498
aVhttp://images.cars.com/phototab/DMI/149767/CN0768/19.jpg
p499
aVhttp://images.cars.com/phototab/DMI/149767/CN0768/18.jpg
p500
aVhttp://images.cars.com/phototab/DMI/149767/CN0768/16.jpg
p501
aVhttp://images.cars.com/phototab/DMI/149767/CN0768/14.jpg
p502
aVhttp://images.cars.com/phototab/DMI/149767/CN0768/12.jpg
p503
aVhttp://images.cars.com/phototab/DMI/149767/CN0768/11.jpg
p504
aVhttp://images.cars.com/phototab/DMI/149767/CN0768/10.jpg
p505
aVhttp://images.cars.com/phototab/DMI/149767/CN0768/07.jpg
p506
aVhttp://images.cars.com/phototab/DMI/149767/CN0768/06.jpg
p507
aVhttp://images.cars.com/phototab/DMI/149767/CN0768/05.jpg
p508
aVhttp://images.cars.com/phototab/DMI/149767/CN0768/03.jpg
p509
aVhttp://images.cars.com/phototab/DMI/149767/CN0786/32.jpg
p510
aVhttp://images.cars.com/phototab/DMI/149767/CN0786/30.jpg
p511
aVhttp://images.cars.com/phototab/DMI/149767/CN0786/24.jpg
p512
aVhttp://images.cars.com/phototab/DMI/149767/CN0786/23.jpg
p513
aVhttp://images.cars.com/phototab/DMI/149767/CN0786/21.jpg
p514
aVhttp://images.cars.com/phototab/DMI/149767/CN0786/20.jpg
p515
aVhttp://images.cars.com/phototab/DMI/149767/CN0786/15.jpg
p516
aVhttp://images.cars.com/phototab/DMI/149767/CN0786/14.jpg
p517
aVhttp://images.cars.com/phototab/DMI/149767/CN0786/12.jpg
p518
aVhttp://images.cars.com/phototab/DMI/149767/CN0786/10.jpg
p519
aVhttp://images.cars.com/phototab/DMI/149767/CN0786/07.jpg
p520
aVhttp://images.cars.com/phototab/DMI/149767/CN0786/05.jpg
p521
aVhttp://images.cars.com/phototab/DMI/149767/CN0786/02.jpg
p522
aVhttp://images.cars.com/phototab/DMI/149767/CN0786/01.jpg
p523
aVhttp://images.cars.com/phototab/DMI/209667/15T619/32.jpg
p524
aVhttp://images.cars.com/phototab/DMI/209667/15T619/30.jpg
p525
aVhttp://images.cars.com/phototab/DMI/149767/CN0786/09.jpg
p526
aVhttp://images.cars.com/phototab/DMI/209667/15T619/26.jpg
p527
aVhttp://images.cars.com/phototab/DMI/209667/15T619/25.jpg
p528
aVhttp://images.cars.com/phototab/DMI/209667/15T619/24.jpg
p529
aVhttp://images.cars.com/phototab/DMI/209667/15T619/22.jpg
p530
aVhttp://images.cars.com/phototab/DMI/209667/15T619/21.jpg
p531
aVhttp://images.cars.com/phototab/DMI/89025/T152158/18.jpg
p532
aVhttp://images.cars.com/phototab/DMI/193059/FH1323/17.jpg
p533
aVhttp://images.cars.com/phototab/DMI/209667/15T619/18.jpg
p534
aVhttp://images.cars.com/phototab/DMI/209667/15T619/17.jpg
p535
aVhttp://images.cars.com/phototab/DMI/209667/15T619/16.jpg
p536
aVhttp://images.cars.com/phototab/DMI/209667/15T619/10.jpg
p537
aVhttp://images.cars.com/phototab/DMI/209667/15T619/09.jpg
p538
aVhttp://images.cars.com/phototab/DMI/209667/15T619/07.jpg
p539
aVhttp://images.cars.com/phototab/DMI/209667/15T619/06.jpg
p540
aVhttp://images.cars.com/phototab/DMI/109839/CT15481/04.jpg
p541
aVhttp://images.cars.com/phototab/DMI/209667/15T619/05.jpg
p542
aVhttp://images.cars.com/phototab/DMI/209667/15T619/04.jpg
p543
aVhttp://images.cars.com/phototab/DMI/209667/15T619/03.jpg
p544
aVhttp://images.cars.com/phototab/MDC/62/446162/1696152362.jpg
p545
aVhttp://images.cars.com/phototab/MDC/62/446162/1696152361.jpg
p546
aVhttp://images.cars.com/phototab/MDC/62/446162/1696152360.jpg
p547
aVhttp://images.cars.com/phototab/MDC/62/446162/1696152333.jpg
p548
aVhttp://images.cars.com/phototab/MDC/62/446162/1696152331.jpg
p549
aVhttp://images.cars.com/phototab/MDC/62/446162/1696152330.jpg
p550
aVhttp://images.cars.com/phototab/MDC/62/446162/1696152329.jpg
p551
aVhttp://images.cars.com/phototab/MDC/62/446162/1696152324.jpg
p552
aVhttp://images.cars.com/phototab/MDC/62/446162/1696152323.jpg
p553
aVhttp://images.cars.com/phototab/MDC/62/446162/1696152283.jpg
p554
aVhttp://images.cars.com/phototab/MDC/62/446162/1696152237.jpg
p555
aVhttp://images.cars.com/phototab/MDC/62/446162/1696152236.jpg
p556
aVhttp://images.cars.com/phototab/MDC/62/446162/1696152216.jpg
p557
aVhttp://images.cars.com/phototab/MDC/62/446162/1696152214.jpg
p558
aVhttp://images.cars.com/phototab/MDC/62/446162/1696152151.jpg
p559
aVhttp://images.cars.com/phototab/DMI/109839/CT15481/20.jpg
p560
aVhttp://images.cars.com/phototab/DMI/15134/F1102/22.jpg
p561
aVhttp://images.cars.com/phototab/MDC/62/446162/1696152084.jpg
p562
aVhttp://images.cars.com/phototab/DMI/151213/7209/32.jpg
p563
aVhttp://images.cars.com/phototab/DMI/151213/7209/30.jpg
p564
aVhttp://images.cars.com/phototab/DMI/180130/T55932/11.jpg
p565
aVhttp://images.cars.com/phototab/DMI/151213/7209/29.jpg
p566
aVhttp://images.cars.com/phototab/DMI/151213/7209/26.jpg
p567
aVhttp://images.cars.com/phototab/DMI/151213/7209/25.jpg
p568
aVhttp://images.cars.com/phototab/DMI/151213/7209/22.jpg
p569
aVhttp://images.cars.com/phototab/DMI/151213/7209/20.jpg
p570
aVhttp://images.cars.com/phototab/DMI/5243226/CT5304/19.jpg
p571
aVhttp://images.cars.com/phototab/DMI/151213/7209/19.jpg
p572
aVhttp://images.cars.com/phototab/DMI/151213/7209/15.jpg
p573
aVhttp://images.cars.com/phototab/DMI/151213/7209/12.jpg
p574
aVhttp://images.cars.com/phototab/DMI/151213/7209/11.jpg
p575
aVhttp://images.cars.com/phototab/DMI/151213/7209/09.jpg
p576
aVhttp://images.cars.com/phototab/DMI/151213/7209/07.jpg
p577
aVhttp://images.cars.com/phototab/DMI/151213/7209/05.jpg
p578
aVhttp://images.cars.com/phototab/DMI/151213/7209/01.jpg
p579
aVhttp://images.cars.com/phototab/DMI/108072/C15853/32.jpg
p580
aVhttp://images.cars.com/phototab/DMI/108072/C15853/30.jpg
p581
aVhttp://images.cars.com/phototab/DMI/108072/C15853/29.jpg
p582
aVhttp://images.cars.com/phototab/DMI/108072/C15853/27.jpg
p583
aVhttp://images.cars.com/phototab/DMI/108072/C15853/23.jpg
p584
aVhttp://images.cars.com/phototab/DMI/108072/C15853/22.jpg
p585
aVhttp://images.cars.com/phototab/DMI/108072/C15853/21.jpg
p586
aVhttp://images.cars.com/phototab/DMI/108072/C15853/19.jpg
p587
aVhttp://images.cars.com/phototab/DMI/89025/T152119/02.jpg
p588
aVhttp://images.cars.com/phototab/DMI/108072/C15853/18.jpg
p589
aVhttp://images.cars.com/phototab/DMI/108072/C15853/16.jpg
p590
aVhttp://images.cars.com/phototab/DMI/108072/C15853/15.jpg
p591
aVhttp://images.cars.com/phototab/DMI/108072/C15853/14.jpg
p592
aVhttp://images.cars.com/phototab/DMI/108072/C15853/13.jpg
p593
aVhttp://images.cars.com/phototab/DMI/108072/C15853/12.jpg
p594
aVhttp://images.cars.com/phototab/DMI/108072/C15853/11.jpg
p595
aVhttp://images.cars.com/phototab/DMI/108072/C15853/10.jpg
p596
aVhttp://images.cars.com/phototab/DMI/108072/C15853/09.jpg
p597
aVhttp://images.cars.com/phototab/DMI/108072/C15853/06.jpg
p598
aVhttp://images.cars.com/phototab/DMI/108072/C15853/04.jpg
p599
aVhttp://images.cars.com/phototab/DMI/108072/C15853/03.jpg
p600
aVhttp://images.cars.com/phototab/DMI/108072/C15853/01.jpg
p601
aVhttp://images.cars.com/phototab/DMI/182286/1616499/32.jpg
p602
aVhttp://images.cars.com/phototab/DMI/182286/1616499/26.jpg
p603
aVhttp://images.cars.com/phototab/DMI/182286/1616499/25.jpg
p604
aVhttp://images.cars.com/phototab/DMI/182286/1616499/23.jpg
p605
aVhttp://images.cars.com/phototab/DMI/182286/1616499/21.jpg
p606
aVhttp://images.cars.com/phototab/DMI/182286/1616499/17.jpg
p607
aVhttp://images.cars.com/phototab/DMI/182286/1616499/16.jpg
p608
aVhttp://images.cars.com/phototab/DMI/182286/1616499/15.jpg
p609
aVhttp://images.cars.com/phototab/DMI/182286/1616499/13.jpg
p610
aVhttp://images.cars.com/phototab/DMI/182286/1616499/12.jpg
p611
aVhttp://images.cars.com/phototab/DMI/151261/602375/27.jpg
p612
aVhttp://images.cars.com/phototab/DMI/182286/1616499/10.jpg
p613
aVhttp://images.cars.com/phototab/DMI/182286/1616499/08.jpg
p614
aVhttp://images.cars.com/phototab/DMI/182286/1616499/05.jpg
p615
aVhttp://images.cars.com/phototab/DMI/182286/1616499/02.jpg
p616
aVhttp://images.cars.com/phototab/DMI/152642/9548/28.jpg
p617
aVhttp://images.cars.com/phototab/DMI/152642/9548/27.jpg
p618
aVhttp://images.cars.com/phototab/DMI/152642/9548/25.jpg
p619
aVhttp://images.cars.com/phototab/DMI/152642/9548/24.jpg
p620
aVhttp://images.cars.com/phototab/DMI/152642/9548/23.jpg
p621
aVhttp://images.cars.com/phototab/DMI/152642/9548/22.jpg
p622
aVhttp://images.cars.com/phototab/DMI/152642/9548/21.jpg
p623
aVhttp://images.cars.com/phototab/DMI/207950/13191/20.jpg
p624
aVhttp://images.cars.com/phototab/DMI/152642/9548/20.jpg
p625
aVhttp://images.cars.com/phototab/DMI/152642/9548/18.jpg
p626
aVhttp://images.cars.com/phototab/DMI/152642/9548/17.jpg
p627
aVhttp://images.cars.com/phototab/DMI/152642/9548/11.jpg
p628
aVhttp://images.cars.com/phototab/DMI/152642/9548/10.jpg
p629
aVhttp://images.cars.com/phototab/DMI/152642/9548/09.jpg
p630
aVhttp://images.cars.com/phototab/DMI/152642/9548/07.jpg
p631
aVhttp://images.cars.com/phototab/DMI/152642/9548/06.jpg
p632
aVhttp://images.cars.com/phototab/DMI/152642/9548/05.jpg
p633
aVhttp://images.cars.com/phototab/DMI/152642/9548/04.jpg
p634
aVhttp://images.cars.com/phototab/DMI/152642/9548/03.jpg
p635
aVhttp://images.cars.com/phototab/DMI/152642/9548/02.jpg
p636
aVhttp://images.cars.com/phototab/DMI/192329/8431BLACK/31.jpg
p637
aVhttp://images.cars.com/phototab/DMI/21227/FF626572/21.jpg
p638
aVhttp://images.cars.com/phototab/DMI/192329/8431BLACK/30.jpg
p639
aVhttp://images.cars.com/phototab/DMI/192329/8431BLACK/29.jpg
p640
aVhttp://images.cars.com/phototab/DMI/192329/8431BLACK/28.jpg
p641
aVhttp://images.cars.com/phototab/DMI/192329/8431BLACK/27.jpg
p642
aVhttp://images.cars.com/phototab/DMI/192329/8431BLACK/26.jpg
p643
aVhttp://images.cars.com/phototab/DMI/192329/8431BLACK/25.jpg
p644
aVhttp://images.cars.com/phototab/DMI/192329/8431BLACK/24.jpg
p645
aVhttp://images.cars.com/phototab/DMI/192329/8431BLACK/22.jpg
p646
aVhttp://images.cars.com/phototab/DMI/192329/8431BLACK/21.jpg
p647
aVhttp://images.cars.com/phototab/DMI/192329/8431BLACK/18.jpg
p648
aVhttp://images.cars.com/phototab/DMI/192329/8431BLACK/17.jpg
p649
aVhttp://images.cars.com/phototab/DMI/192329/8431BLACK/15.jpg
p650
aVhttp://images.cars.com/phototab/DMI/192329/8431BLACK/14.jpg
p651
aVhttp://images.cars.com/phototab/DMI/192329/8431BLACK/12.jpg
p652
aVhttp://images.cars.com/phototab/DMI/192329/8431BLACK/11.jpg
p653
aVhttp://images.cars.com/phototab/DMI/192329/8431BLACK/10.jpg
p654
aVhttp://images.cars.com/phototab/DMI/192329/8431BLACK/09.jpg
p655
aVhttp://images.cars.com/phototab/DMI/192329/8431BLACK/08.jpg
p656
aVhttp://images.cars.com/phototab/DMI/89025/T152119/21.jpg
p657
aVhttp://images.cars.com/phototab/DMI/192329/8431BLACK/06.jpg
p658
aVhttp://images.cars.com/phototab/DMI/192329/8431BLACK/05.jpg
p659
aVhttp://images.cars.com/phototab/DMI/192329/8431BLACK/04.jpg
p660
aVhttp://images.cars.com/phototab/DMI/192329/8431BLACK/01.jpg
p661
aVhttp://images.cars.com/phototab/DMI/21227/FF626572/31.jpg
p662
aVhttp://images.cars.com/phototab/DMI/192329/8432WHITE/32.jpg
p663
aVhttp://images.cars.com/phototab/DMI/192329/8432WHITE/29.jpg
p664
aVhttp://images.cars.com/phototab/DMI/192329/8432WHITE/26.jpg
p665
aVhttp://images.cars.com/phototab/DMI/192329/8432WHITE/24.jpg
p666
aVhttp://images.cars.com/phototab/DMI/192329/8432WHITE/23.jpg
p667
aVhttp://images.cars.com/phototab/DMI/192329/8432WHITE/21.jpg
p668
aVhttp://images.cars.com/phototab/DMI/192329/8432WHITE/17.jpg
p669
aVhttp://images.cars.com/phototab/DMI/192329/8432WHITE/13.jpg
p670
aVhttp://images.cars.com/phototab/DMI/182208/661243/25.jpg
p671
aVhttp://images.cars.com/phototab/DMI/192329/8432WHITE/12.jpg
p672
aVhttp://images.cars.com/phototab/DMI/192329/8432WHITE/11.jpg
p673
aVhttp://images.cars.com/phototab/DMI/192329/8432WHITE/09.jpg
p674
aVhttp://images.cars.com/phototab/DMI/192329/8432WHITE/07.jpg
p675
aVhttp://images.cars.com/phototab/DMI/192329/8432WHITE/06.jpg
p676
aVhttp://images.cars.com/phototab/DMI/181088/T1586/15.jpg
p677
aVhttp://images.cars.com/phototab/DMI/192329/8432WHITE/04.jpg
p678
aVhttp://images.cars.com/phototab/DMI/192329/8432WHITE/02.jpg
p679
aVhttp://images.cars.com/phototab/DMI/192329/8432WHITE/01.jpg
p680
aVhttp://images.cars.com/phototab/DMI/194994/5C0975/32.jpg
p681
aVhttp://images.cars.com/phototab/DMI/194994/5C0975/31.jpg
p682
aVhttp://images.cars.com/phototab/DMI/194994/5C0975/29.jpg
p683
aVhttp://images.cars.com/phototab/DMI/194994/5C0975/28.jpg
p684
aVhttp://images.cars.com/phototab/DMI/194994/5C0975/25.jpg
p685
aVhttp://images.cars.com/phototab/DMI/194994/5C0975/21.jpg
p686
aVhttp://images.cars.com/phototab/DMI/194994/5C0975/20.jpg
p687
aVhttp://images.cars.com/phototab/DMI/194994/5C0975/18.jpg
p688
aVhttp://images.cars.com/phototab/DMI/194994/5C0975/14.jpg
p689
aVhttp://images.cars.com/phototab/DMI/194994/5C0975/13.jpg
p690
aVhttp://images.cars.com/phototab/DMI/194994/5C0975/11.jpg
p691
aVhttp://images.cars.com/phototab/DMI/152642/9548/30.jpg
p692
aVhttp://images.cars.com/phototab/DMI/194994/5C0975/09.jpg
p693
aVhttp://images.cars.com/phototab/DMI/194994/5C0975/08.jpg
p694
aVhttp://images.cars.com/phototab/DMI/194994/5C0975/02.jpg
p695
aVhttp://images.cars.com/phototab/DMI/194994/5C0975/01.jpg
p696
aVhttp://images.cars.com/phototab/DMI/209667/15T608/32.jpg
p697
aVhttp://images.cars.com/phototab/DMI/209667/15T608/31.jpg
p698
aVhttp://images.cars.com/phototab/DMI/209667/15T608/30.jpg
p699
aVhttp://images.cars.com/phototab/DMI/21227/FF626572/32.jpg
p700
aVhttp://images.cars.com/phototab/DMI/209667/15T608/29.jpg
p701
aVhttp://images.cars.com/phototab/DMI/209667/15T608/24.jpg
p702
aVhttp://images.cars.com/phototab/DMI/209667/15T608/21.jpg
p703
aVhttp://images.cars.com/phototab/DMI/209667/15T608/20.jpg
p704
aVhttp://images.cars.com/phototab/DMI/209667/15T608/19.jpg
p705
aVhttp://images.cars.com/phototab/DMI/209667/15T608/18.jpg
p706
aVhttp://images.cars.com/phototab/DMI/209667/15T608/15.jpg
p707
aVhttp://images.cars.com/phototab/DMI/209667/15T608/12.jpg
p708
aVhttp://images.cars.com/phototab/DMI/209667/15T608/09.jpg
p709
aVhttp://images.cars.com/phototab/DMI/209667/15T608/07.jpg
p710
aVhttp://images.cars.com/phototab/DMI/209667/15T608/06.jpg
p711
aVhttp://images.cars.com/phototab/DMI/209667/15T608/05.jpg
p712
aVhttp://images.cars.com/phototab/DMI/149767/CN0803/11.jpg
p713
aVhttp://images.cars.com/phototab/DMI/209667/15T608/04.jpg
p714
aVhttp://images.cars.com/phototab/DMI/209667/15T608/03.jpg
p715
aVhttp://images.cars.com/phototab/DMI/15134/F1102/02.jpg
p716
aVhttp://images.cars.com/phototab/DMI/209667/15T608/02.jpg
p717
aVhttp://images.cars.com/phototab/DMI/181088/T1586/14.jpg
p718
aVhttp://images.cars.com/phototab/DMI/180130/T56556/31.jpg
p719
aVhttp://images.cars.com/phototab/DMI/180130/T56556/28.jpg
p720
aVhttp://images.cars.com/phototab/DMI/173299/C154230/25.jpg
p721
aVhttp://images.cars.com/phototab/DMI/180130/T56556/27.jpg
p722
aVhttp://images.cars.com/phototab/DMI/180130/T56556/25.jpg
p723
aVhttp://images.cars.com/phototab/DMI/180130/T56556/24.jpg
p724
aVhttp://images.cars.com/phototab/DMI/180130/T56556/21.jpg
p725
aVhttp://images.cars.com/phototab/DMI/180130/T56556/19.jpg
p726
aVhttp://images.cars.com/phototab/DMI/180130/T56556/17.jpg
p727
aVhttp://images.cars.com/phototab/DMI/180130/T56556/14.jpg
p728
aVhttp://images.cars.com/phototab/DMI/5243226/CT5304/03.jpg
p729
aVhttp://images.cars.com/phototab/DMI/180130/T56556/13.jpg
p730
aVhttp://images.cars.com/phototab/DMI/21227/FF626572/08.jpg
p731
aVhttp://images.cars.com/phototab/DMI/180130/T56556/12.jpg
p732
aVhttp://images.cars.com/phototab/DMI/180130/T56556/10.jpg
p733
aVhttp://images.cars.com/phototab/DMI/149767/CN0768/04.jpg
p734
aVhttp://images.cars.com/phototab/DMI/180130/T56556/09.jpg
p735
aVhttp://images.cars.com/phototab/DMI/180130/T56556/06.jpg
p736
aVhttp://images.cars.com/phototab/DMI/180130/T56556/02.jpg
p737
aVhttp://images.cars.com/phototab/DMI/180130/T56556/01.jpg
p738
aVhttp://images.cars.com/phototab/DMI/182286/1630175/32.jpg
p739
aVhttp://images.cars.com/phototab/DMI/21227/FF593702/06.jpg
p740
aVhttp://images.cars.com/phototab/DMI/182286/1630175/31.jpg
p741
aVhttp://images.cars.com/phototab/DMI/182286/1630175/29.jpg
p742
aVhttp://images.cars.com/phototab/DMI/182286/1630175/26.jpg
p743
aVhttp://images.cars.com/phototab/DMI/182286/1630175/20.jpg
p744
aVhttp://images.cars.com/phototab/DMI/182286/1630175/18.jpg
p745
aVhttp://images.cars.com/phototab/DMI/182286/1630175/17.jpg
p746
aVhttp://images.cars.com/phototab/DMI/182286/1630175/15.jpg
p747
aVhttp://images.cars.com/phototab/DMI/182286/1630175/14.jpg
p748
aVhttp://images.cars.com/phototab/DMI/5362784/C150629/02.jpg
p749
aVhttp://images.cars.com/phototab/DMI/182286/1630175/12.jpg
p750
aVhttp://images.cars.com/phototab/DMI/182286/1630175/11.jpg
p751
aVhttp://images.cars.com/phototab/DMI/182286/1630175/10.jpg
p752
aVhttp://images.cars.com/phototab/DMI/182286/1630175/09.jpg
p753
aVhttp://images.cars.com/phototab/DMI/182286/1616499/20.jpg
p754
aVhttp://images.cars.com/phototab/DMI/182286/1630175/08.jpg
p755
aVhttp://images.cars.com/phototab/DMI/182286/1630175/07.jpg
p756
aVhttp://images.cars.com/phototab/DMI/182286/1630175/06.jpg
p757
aVhttp://images.cars.com/phototab/DMI/182286/1630175/05.jpg
p758
aVhttp://images.cars.com/phototab/DMI/182286/1630175/04.jpg
p759
aVhttp://images.cars.com/phototab/DMI/182286/1630175/03.jpg
p760
aVhttp://images.cars.com/phototab/DMI/182286/1630175/01.jpg
p761
aVhttp://images.cars.com/phototab/DMI/112994/411526/29.jpg
p762
aVhttp://images.cars.com/phototab/DMI/112994/411526/28.jpg
p763
aVhttp://images.cars.com/phototab/DMI/112994/411526/27.jpg
p764
aVhttp://images.cars.com/phototab/DMI/112994/411526/26.jpg
p765
aVhttp://images.cars.com/phototab/DMI/112994/411526/25.jpg
p766
aVhttp://images.cars.com/phototab/DMI/112994/411526/22.jpg
p767
aVhttp://images.cars.com/phototab/DMI/112994/411526/21.jpg
p768
aVhttp://images.cars.com/phototab/DMI/112994/411526/19.jpg
p769
aVhttp://images.cars.com/phototab/DMI/112994/411526/15.jpg
p770
aVhttp://images.cars.com/phototab/DMI/112994/411526/14.jpg
p771
aVhttp://images.cars.com/phototab/DMI/112994/411526/11.jpg
p772
aVhttp://images.cars.com/phototab/DMI/112994/411526/10.jpg
p773
aVhttp://images.cars.com/phototab/DMI/112994/411526/09.jpg
p774
aVhttp://images.cars.com/phototab/DMI/112994/411526/07.jpg
p775
aVhttp://images.cars.com/phototab/DMI/112994/411526/06.jpg
p776
aVhttp://images.cars.com/phototab/DMI/112994/411526/05.jpg
p777
aVhttp://images.cars.com/phototab/DMI/112994/411526/04.jpg
p778
aVhttp://images.cars.com/phototab/DMI/112994/411526/02.jpg
p779
aVhttp://images.cars.com/phototab/DMI/179970/NT926/32.jpg
p780
aVhttp://images.cars.com/phototab/DMI/179970/NT926/31.jpg
p781
aVhttp://images.cars.com/phototab/DMI/179970/NT926/29.jpg
p782
aVhttp://images.cars.com/phototab/DMI/179970/NT926/28.jpg
p783
aVhttp://images.cars.com/phototab/DMI/21227/FF593702/31.jpg
p784
aVhttp://images.cars.com/phototab/DMI/182286/1616499/07.jpg
p785
aVhttp://images.cars.com/phototab/DMI/179970/NT926/27.jpg
p786
aVhttp://images.cars.com/phototab/DMI/179970/NT926/26.jpg
p787
aVhttp://images.cars.com/phototab/DMI/179970/NT926/23.jpg
p788
aVhttp://images.cars.com/phototab/DMI/179970/NT926/22.jpg
p789
aVhttp://images.cars.com/phototab/DMI/182286/1630175/24.jpg
p790
aVhttp://images.cars.com/phototab/DMI/179970/NT926/21.jpg
p791
aVhttp://images.cars.com/phototab/DMI/179970/NT926/20.jpg
p792
aVhttp://images.cars.com/phototab/DMI/179970/NT926/18.jpg
p793
aVhttp://images.cars.com/phototab/DMI/179970/NT926/17.jpg
p794
aVhttp://images.cars.com/phototab/DMI/179970/NT926/12.jpg
p795
aVhttp://images.cars.com/phototab/MDC/62/446162/1696152133.jpg
p796
aVhttp://images.cars.com/phototab/DMI/179970/NT926/11.jpg
p797
aVhttp://images.cars.com/phototab/DMI/179970/NT926/09.jpg
p798
aVhttp://images.cars.com/phototab/DMI/179970/NT926/08.jpg
p799
aVhttp://images.cars.com/phototab/DMI/179970/NT926/07.jpg
p800
aVhttp://images.cars.com/phototab/DMI/179970/NT926/03.jpg
p801
aVhttp://images.cars.com/phototab/DMI/179970/NT926/02.jpg
p802
aVhttp://images.cars.com/phototab/DMI/149767/CN0816/31.jpg
p803
aVhttp://images.cars.com/phototab/DMI/149767/CN0816/29.jpg
p804
aVhttp://images.cars.com/phototab/DMI/149767/CN0816/28.jpg
p805
aVhttp://images.cars.com/phototab/DMI/149767/CN0816/27.jpg
p806
aVhttp://images.cars.com/phototab/DMI/149767/CN0816/26.jpg
p807
aVhttp://images.cars.com/phototab/DMI/2319/152885/30.jpg
p808
aVhttp://images.cars.com/phototab/DMI/149767/CN0816/25.jpg
p809
aVhttp://images.cars.com/phototab/DMI/149767/CN0816/22.jpg
p810
aVhttp://images.cars.com/phototab/DMI/149767/CN0816/20.jpg
p811
aVhttp://images.cars.com/phototab/DMI/180130/T55932/05.jpg
p812
aVhttp://images.cars.com/phototab/DMI/149767/CN0816/19.jpg
p813
aVhttp://images.cars.com/phototab/DMI/149767/CN0816/17.jpg
p814
aVhttp://images.cars.com/phototab/DMI/149767/CN0816/15.jpg
p815
aVhttp://images.cars.com/phototab/DMI/149767/CN0816/13.jpg
p816
aVhttp://images.cars.com/phototab/DMI/149767/CN0816/11.jpg
p817
aVhttp://images.cars.com/phototab/DMI/146955/G343383/15.jpg
p818
aVhttp://images.cars.com/phototab/DMI/149767/CN0816/08.jpg
p819
aVhttp://images.cars.com/phototab/DMI/207950/13191/02.jpg
p820
aVhttp://images.cars.com/phototab/DMI/149767/CN0816/07.jpg
p821
aVhttp://images.cars.com/phototab/DMI/149767/CN0816/05.jpg
p822
aVhttp://images.cars.com/phototab/DMI/21227/FF593702/13.jpg
p823
aVhttp://images.cars.com/phototab/DMI/149767/CN0816/04.jpg
p824
aVhttp://images.cars.com/phototab/DMI/149767/CN0816/03.jpg
p825
aVhttp://images.cars.com/phototab/DMI/149767/CN0816/02.jpg
p826
aVhttp://images.cars.com/phototab/DMI/149767/CN0816/01.jpg
p827
aVhttp://images.cars.com/phototab/DMI/5355497/644569/31.jpg
p828
aVhttp://images.cars.com/phototab/DMI/5355497/644569/30.jpg
p829
aVhttp://images.cars.com/phototab/DMI/15134/F1102/31.jpg
p830
aVhttp://images.cars.com/phototab/DMI/5355497/644569/29.jpg
p831
aVhttp://images.cars.com/phototab/DMI/5355497/644569/28.jpg
p832
aVhttp://images.cars.com/phototab/DMI/5355497/644569/27.jpg
p833
aVhttp://images.cars.com/phototab/DMI/5355497/644569/26.jpg
p834
aVhttp://images.cars.com/phototab/DMI/5355497/644569/25.jpg
p835
aVhttp://images.cars.com/phototab/DMI/5355497/644569/24.jpg
p836
aVhttp://images.cars.com/phototab/DMI/5355497/644569/23.jpg
p837
aVhttp://images.cars.com/phototab/DMI/5355497/644569/22.jpg
p838
aVhttp://images.cars.com/phototab/DMI/109839/CT15481/05.jpg
p839
aVhttp://images.cars.com/phototab/DMI/5355497/644569/21.jpg
p840
aVhttp://images.cars.com/phototab/DMI/5355497/644569/20.jpg
p841
aVhttp://images.cars.com/phototab/DMI/5243226/CT5304/04.jpg
p842
aVhttp://images.cars.com/phototab/DMI/5355497/644569/19.jpg
p843
aVhttp://images.cars.com/phototab/DMI/146955/G343383/09.jpg
p844
aVhttp://images.cars.com/phototab/DMI/5355497/644569/15.jpg
p845
aVhttp://images.cars.com/phototab/DMI/5355497/644569/13.jpg
p846
aVhttp://images.cars.com/phototab/DMI/5355497/644569/11.jpg
p847
aVhttp://images.cars.com/phototab/DMI/5355497/644569/10.jpg
p848
aVhttp://images.cars.com/phototab/DMI/5355497/644569/06.jpg
p849
aVhttp://images.cars.com/phototab/DMI/5355497/644569/03.jpg
p850
aVhttp://images.cars.com/phototab/DMI/5355497/644569/01.jpg
p851
aVhttp://images.cars.com/phototab/DMI/85607/12363/32.jpg
p852
aVhttp://images.cars.com/phototab/DMI/85607/12363/31.jpg
p853
aVhttp://images.cars.com/phototab/DMI/85607/12363/29.jpg
p854
aVhttp://images.cars.com/phototab/DMI/85607/12363/27.jpg
p855
aVhttp://images.cars.com/phototab/DMI/85607/12363/25.jpg
p856
aVhttp://images.cars.com/phototab/DMI/85607/12363/23.jpg
p857
aVhttp://images.cars.com/phototab/DMI/85607/12363/22.jpg
p858
aVhttp://images.cars.com/phototab/DMI/151261/602375/14.jpg
p859
aVhttp://images.cars.com/phototab/DMI/85607/12363/19.jpg
p860
aVhttp://images.cars.com/phototab/DMI/85607/12363/18.jpg
p861
aVhttp://images.cars.com/phototab/DMI/85607/12363/17.jpg
p862
aVhttp://images.cars.com/phototab/DMI/85607/12363/13.jpg
p863
aVhttp://images.cars.com/phototab/DMI/152642/9548/12.jpg
p864
aVhttp://images.cars.com/phototab/DMI/85607/12363/10.jpg
p865
aVhttp://images.cars.com/phototab/DMI/85607/12363/09.jpg
p866
aVhttp://images.cars.com/phototab/DMI/85607/12363/08.jpg
p867
aVhttp://images.cars.com/phototab/DMI/85607/12363/07.jpg
p868
aVhttp://images.cars.com/phototab/DMI/85607/12363/06.jpg
p869
aVhttp://images.cars.com/phototab/DMI/85607/12363/05.jpg
p870
aVhttp://images.cars.com/phototab/DMI/85607/12363/04.jpg
p871
aVhttp://images.cars.com/phototab/DMI/85607/12363/02.jpg
p872
aVhttp://images.cars.com/phototab/DMI/85607/12363/30.jpg
p873
aVhttp://images.cars.com/phototab/DMI/205276/C3844/31.jpg
p874
aVhttp://images.cars.com/phototab/DMI/205276/C3844/29.jpg
p875
aVhttp://images.cars.com/phototab/DMI/149767/CN0786/25.jpg
p876
aVhttp://images.cars.com/phototab/DMI/205276/C3844/28.jpg
p877
aVhttp://images.cars.com/phototab/DMI/205276/C3844/26.jpg
p878
aVhttp://images.cars.com/phototab/DMI/205276/C3844/25.jpg
p879
aVhttp://images.cars.com/phototab/DMI/205276/C3844/22.jpg
p880
aVhttp://images.cars.com/phototab/DMI/205276/C3844/20.jpg
p881
aVhttp://images.cars.com/phototab/DMI/205276/C3844/19.jpg
p882
aVhttp://images.cars.com/phototab/DMI/157672/150708/09.jpg
p883
aVhttp://images.cars.com/phototab/DMI/205276/C3844/16.jpg
p884
aVhttp://images.cars.com/phototab/DMI/205276/C3844/15.jpg
p885
aVhttp://images.cars.com/phototab/DMI/205276/C3844/14.jpg
p886
aVhttp://images.cars.com/phototab/DMI/205276/C3844/13.jpg
p887
aVhttp://images.cars.com/phototab/DMI/205276/C3844/07.jpg
p888
aVhttp://images.cars.com/phototab/DMI/205276/C3844/02.jpg
p889
aVhttp://images.cars.com/phototab/DMI/205276/C3844/01.jpg
p890
aVhttp://images.cars.com/phototab/DMI/194994/5C1541/32.jpg
p891
aVhttp://images.cars.com/phototab/DMI/194994/5C1541/31.jpg
p892
aVhttp://images.cars.com/phototab/DMI/194994/5C1541/27.jpg
p893
aVhttp://images.cars.com/phototab/DMI/194994/5C1541/22.jpg
p894
aVhttp://images.cars.com/phototab/DMI/194994/5C1541/21.jpg
p895
aVhttp://images.cars.com/phototab/DMI/194994/5C1541/20.jpg
p896
aVhttp://images.cars.com/phototab/DMI/194994/5C1541/16.jpg
p897
aVhttp://images.cars.com/phototab/DMI/194994/5C1541/14.jpg
p898
aVhttp://images.cars.com/phototab/DMI/194994/5C1541/13.jpg
p899
aVhttp://images.cars.com/phototab/DMI/194994/5C1541/12.jpg
p900
aVhttp://images.cars.com/phototab/DMI/194994/5C1541/11.jpg
p901
aVhttp://images.cars.com/phototab/DMI/194994/5C1541/06.jpg
p902
aVhttp://images.cars.com/phototab/DMI/194994/5C0975/24.jpg
p903
aVhttp://images.cars.com/phototab/DMI/194994/5C1541/03.jpg
p904
aVhttp://images.cars.com/phototab/DMI/194994/5C1541/02.jpg
p905
aVhttp://images.cars.com/phototab/DMI/205276/C4008/31.jpg
p906
aVhttp://images.cars.com/phototab/DMI/205276/C4008/29.jpg
p907
aVhttp://images.cars.com/phototab/DMI/182208/661243/04.jpg
p908
aVhttp://images.cars.com/phototab/DMI/205276/C4008/26.jpg
p909
aVhttp://images.cars.com/phototab/DMI/205276/C4008/25.jpg
p910
aVhttp://images.cars.com/phototab/DMI/180130/T55932/31.jpg
p911
aVhttp://images.cars.com/phototab/DMI/205276/C4008/24.jpg
p912
aVhttp://images.cars.com/phototab/DMI/205276/C4008/22.jpg
p913
aVhttp://images.cars.com/phototab/DMI/205276/C4008/21.jpg
p914
aVhttp://images.cars.com/phototab/DMI/205276/C4008/20.jpg
p915
aVhttp://images.cars.com/phototab/DMI/205276/C4008/17.jpg
p916
aVhttp://images.cars.com/phototab/DMI/205276/C4008/16.jpg
p917
aVhttp://images.cars.com/phototab/DMI/205276/C4008/14.jpg
p918
aVhttp://images.cars.com/phototab/DMI/205276/C4008/13.jpg
p919
aVhttp://images.cars.com/phototab/DMI/205276/C4008/12.jpg
p920
aVhttp://images.cars.com/phototab/DMI/205276/C4008/10.jpg
p921
aVhttp://images.cars.com/phototab/DMI/205276/C4008/09.jpg
p922
aVhttp://images.cars.com/phototab/DMI/205276/C4008/07.jpg
p923
aVhttp://images.cars.com/phototab/DMI/205276/C4008/04.jpg
p924
aVhttp://images.cars.com/phototab/DMI/205276/C4008/01.jpg
p925
aVhttp://images.cars.com/phototab/DMI/108102/FF644455/32.jpg
p926
aVhttp://images.cars.com/phototab/DMI/108102/FF644455/23.jpg
p927
aVhttp://images.cars.com/phototab/DMI/180130/T56556/23.jpg
p928
aVhttp://images.cars.com/phototab/DMI/108102/FF644455/21.jpg
p929
aVhttp://images.cars.com/phototab/DMI/108102/FF644455/18.jpg
p930
aVhttp://images.cars.com/phototab/DMI/108102/FF644455/16.jpg
p931
aVhttp://images.cars.com/phototab/DMI/108102/FF644455/14.jpg
p932
aVhttp://images.cars.com/phototab/DMI/108102/FF644455/12.jpg
p933
aVhttp://images.cars.com/phototab/DMI/108102/FF644455/09.jpg
p934
aVhttp://images.cars.com/phototab/DMI/108102/FF644455/06.jpg
p935
aVhttp://images.cars.com/phototab/DMI/108102/FF644455/05.jpg
p936
aVhttp://images.cars.com/phototab/DMI/108102/FF644455/01.jpg
p937
aVhttp://images.cars.com/phototab/DMI/153056/SE237/30.jpg
p938
aVhttp://images.cars.com/phototab/DMI/153056/SE237/29.jpg
p939
aVhttp://images.cars.com/phototab/DMI/153056/SE237/28.jpg
p940
aVhttp://images.cars.com/phototab/DMI/153056/SE237/27.jpg
p941
aVhttp://images.cars.com/phototab/DMI/153056/SE237/24.jpg
p942
aVhttp://images.cars.com/phototab/DMI/153056/SE237/23.jpg
p943
aVhttp://images.cars.com/phototab/DMI/153056/SE237/22.jpg
p944
aVhttp://images.cars.com/phototab/DMI/153056/SE237/20.jpg
p945
aVhttp://images.cars.com/phototab/DMI/153056/SE237/19.jpg
p946
aVhttp://images.cars.com/phototab/DMI/153056/SE237/18.jpg
p947
aVhttp://images.cars.com/phototab/DMI/153056/SE237/17.jpg
p948
aVhttp://images.cars.com/phototab/DMI/153056/SE237/16.jpg
p949
aVhttp://images.cars.com/phototab/DMI/153056/SE237/15.jpg
p950
aVhttp://images.cars.com/phototab/DMI/182208/661243/14.jpg
p951
aVhttp://images.cars.com/phototab/DMI/153056/SE237/13.jpg
p952
aVhttp://images.cars.com/phototab/DMI/153056/SE237/10.jpg
p953
aVhttp://images.cars.com/phototab/DMI/153056/SE237/07.jpg
p954
aVhttp://images.cars.com/phototab/DMI/153056/SE237/06.jpg
p955
aVhttp://images.cars.com/phototab/DMI/194994/5C1541/09.jpg
p956
aVhttp://images.cars.com/phototab/DMI/153056/SE237/05.jpg
p957
aVhttp://images.cars.com/phototab/DMI/153056/SE237/03.jpg
p958
aVhttp://images.cars.com/phototab/DMI/153056/SE237/01.jpg
p959
aVhttp://images.cars.com/phototab/DMI/108102/FF651135/32.jpg
p960
aVhttp://images.cars.com/phototab/DMI/194994/5C0975/23.jpg
p961
aVhttp://images.cars.com/phototab/DMI/108102/FF651135/30.jpg
p962
aVhttp://images.cars.com/phototab/DMI/108102/FF651135/28.jpg
p963
aVhttp://images.cars.com/phototab/DMI/108102/FF651135/27.jpg
p964
aVhttp://images.cars.com/phototab/DMI/108102/FF651135/26.jpg
p965
aVhttp://images.cars.com/phototab/DMI/108102/FF651135/25.jpg
p966
aVhttp://images.cars.com/phototab/DMI/108102/FF651135/24.jpg
p967
aVhttp://images.cars.com/phototab/DMI/108102/FF651135/22.jpg
p968
aVhttp://images.cars.com/phototab/DMI/108102/FF651135/21.jpg
p969
aVhttp://images.cars.com/phototab/DMI/108102/FF651135/20.jpg
p970
aVhttp://images.cars.com/phototab/DMI/108102/FF651135/19.jpg
p971
aVhttp://images.cars.com/phototab/DMI/108102/FF651135/18.jpg
p972
aVhttp://images.cars.com/phototab/DMI/108102/FF651135/17.jpg
p973
aVhttp://images.cars.com/phototab/DMI/108102/FF651135/14.jpg
p974
aVhttp://images.cars.com/phototab/DMI/108102/FF651135/09.jpg
p975
aVhttp://images.cars.com/phototab/DMI/108102/FF651135/07.jpg
p976
aVhttp://images.cars.com/phototab/DMI/108102/FF651135/06.jpg
p977
aVhttp://images.cars.com/phototab/DMI/108102/FF651135/05.jpg
p978
aVhttp://images.cars.com/phototab/DMI/156286/2FG249154/31.jpg
p979
aVhttp://images.cars.com/phototab/DMI/108102/FF651135/04.jpg
p980
aVhttp://images.cars.com/phototab/DMI/112994/411526/18.jpg
p981
aVhttp://images.cars.com/phototab/DMI/21904/663237/31.jpg
p982
aVhttp://images.cars.com/phototab/DMI/21904/663237/29.jpg
p983
aVhttp://images.cars.com/phototab/DMI/21904/663237/28.jpg
p984
aVhttp://images.cars.com/phototab/DMI/21904/663237/26.jpg
p985
aVhttp://images.cars.com/phototab/DMI/21904/663237/25.jpg
p986
aVhttp://images.cars.com/phototab/DMI/21904/663237/20.jpg
p987
aVhttp://images.cars.com/phototab/DMI/21904/663237/19.jpg
p988
aVhttp://images.cars.com/phototab/DMI/21904/663237/17.jpg
p989
aVhttp://images.cars.com/phototab/DMI/21904/663237/16.jpg
p990
aVhttp://images.cars.com/phototab/DMI/21904/663237/15.jpg
p991
aVhttp://images.cars.com/phototab/DMI/21904/663237/11.jpg
p992
aVhttp://images.cars.com/phototab/DMI/21904/663237/10.jpg
p993
aVhttp://images.cars.com/phototab/DMI/157672/150708/05.jpg
p994
aVhttp://images.cars.com/phototab/DMI/21904/663237/09.jpg
p995
aVhttp://images.cars.com/phototab/DMI/21904/663237/07.jpg
p996
aVhttp://images.cars.com/phototab/DMI/21904/663237/06.jpg
p997
aVhttp://images.cars.com/phototab/DMI/21904/663237/05.jpg
p998
aVhttp://images.cars.com/phototab/DMI/173299/C154230/03.jpg
p999
aVhttp://images.cars.com/phototab/DMI/21904/663237/04.jpg
p1000
aVhttp://images.cars.com/phototab/DMI/21904/663237/02.jpg
p1001
aVhttp://images.cars.com/phototab/DMI/21904/659755/32.jpg
p1002
aVhttp://images.cars.com/phototab/DMI/21904/659755/30.jpg
p1003
aVhttp://images.cars.com/phototab/DMI/21904/659755/29.jpg
p1004
aVhttp://images.cars.com/phototab/DMI/21904/659755/28.jpg
p1005
asVmercedes-benz_e_class_w212__/__c207_convertible
p1006
(lp1007
Vhttp://images.cars.com/phototab/DMI/21711/M011239A/32.jpg
p1008
aVhttp://images.cars.com/phototab/DMI/21711/M011239A/29.jpg
p1009
aVhttp://images.cars.com/phototab/DMI/21711/M011239A/27.jpg
p1010
aVhttp://images.cars.com/phototab/DMI/21711/M011239A/25.jpg
p1011
aVhttp://images.cars.com/phototab/DMI/21711/M011239A/24.jpg
p1012
aVhttp://images.cars.com/phototab/DMI/21711/M011239A/23.jpg
p1013
aVhttp://images.cars.com/phototab/DMI/21711/M011239A/22.jpg
p1014
aVhttp://images.cars.com/phototab/DMI/21711/M011239A/21.jpg
p1015
aVhttp://images.cars.com/phototab/DMI/21711/M011239A/20.jpg
p1016
aVhttp://images.cars.com/phototab/DMI/21711/M011239A/19.jpg
p1017
aVhttp://images.cars.com/phototab/DMI/21711/M011239A/18.jpg
p1018
aVhttp://images.cars.com/phototab/DMI/21711/M011239A/17.jpg
p1019
aVhttp://images.cars.com/phototab/DMI/21711/M011239A/15.jpg
p1020
aVhttp://images.cars.com/phototab/DMI/21711/M011239A/12.jpg
p1021
aVhttp://images.cars.com/phototab/DMI/21711/M011239A/28.jpg
p1022
aVhttp://images.cars.com/phototab/DMI/21711/M011239A/10.jpg
p1023
aVhttp://images.cars.com/phototab/DMI/21711/M011239A/09.jpg
p1024
aVhttp://images.cars.com/phototab/DMI/21711/M011239A/08.jpg
p1025
aVhttp://images.cars.com/phototab/DMI/21711/M011239A/06.jpg
p1026
aVhttp://images.cars.com/phototab/DMI/21711/M011239A/05.jpg
p1027
aVhttp://images.cars.com/phototab/DMI/21711/M011239A/04.jpg
p1028
aVhttp://images.cars.com/phototab/DMI/21711/M011239A/01.jpg
p1029
aVhttp://images.cars.com/phototab/DMI/110229/GA10082A/27.jpg
p1030
aVhttp://images.cars.com/phototab/DMI/110229/GA10082A/31.jpg
p1031
aVhttp://images.cars.com/phototab/DMI/110229/GA10082A/20.jpg
p1032
aVhttp://images.cars.com/phototab/DMI/110229/GA10082A/29.jpg
p1033
aVhttp://images.cars.com/phototab/DMI/98861/4793/24.jpg
p1034
aVhttp://images.cars.com/phototab/DMI/110229/GA10082A/09.jpg
p1035
aVhttp://images.cars.com/phototab/DMI/110229/GA10082A/24.jpg
p1036
aVhttp://images.cars.com/phototab/DMI/110229/GA10082A/23.jpg
p1037
aVhttp://images.cars.com/phototab/DMI/2191586/7517/27.jpg
p1038
aVhttp://images.cars.com/phototab/DMI/104765/176327/09.jpg
p1039
aVhttp://images.cars.com/phototab/DMI/110229/GA10082A/21.jpg
p1040
aVhttp://images.cars.com/phototab/DMI/110229/GA10082A/22.jpg
p1041
aVhttp://images.cars.com/phototab/DMI/110229/GA10082A/19.jpg
p1042
aVhttp://images.cars.com/phototab/DMI/110229/GA10082A/15.jpg
p1043
aVhttp://images.cars.com/phototab/DMI/110229/GA10082A/14.jpg
p1044
aVhttp://images.cars.com/phototab/DMI/110229/GA10082A/12.jpg
p1045
aVhttp://images.cars.com/phototab/DMI/104765/176327/25.jpg
p1046
aVhttp://images.cars.com/phototab/DMI/110229/GA10082A/08.jpg
p1047
aVhttp://images.cars.com/phototab/DMI/110229/GA10082A/06.jpg
p1048
aVhttp://images.cars.com/phototab/DMI/2191586/7517/20.jpg
p1049
aVhttp://images.cars.com/phototab/DMI/104765/176327/32.jpg
p1050
aVhttp://images.cars.com/phototab/DMI/21711/M011239A/11.jpg
p1051
aVhttp://images.cars.com/phototab/DMI/104765/176327/26.jpg
p1052
aVhttp://images.cars.com/phototab/DMI/104765/176327/30.jpg
p1053
aVhttp://images.cars.com/phototab/DMI/104765/176327/29.jpg
p1054
aVhttp://images.cars.com/phototab/DMI/98861/4793/19.jpg
p1055
aVhttp://images.cars.com/phototab/DMI/104765/176327/27.jpg
p1056
aVhttp://images.cars.com/phototab/DMI/21711/M011239A/03.jpg
p1057
aVhttp://images.cars.com/phototab/DMI/104765/176327/21.jpg
p1058
aVhttp://images.cars.com/phototab/DMI/21711/M011239A/13.jpg
p1059
aVhttp://images.cars.com/phototab/DMI/104765/176327/18.jpg
p1060
aVhttp://images.cars.com/phototab/DMI/104765/176327/17.jpg
p1061
aVhttp://images.cars.com/phototab/DMI/98861/4793/01.jpg
p1062
aVhttp://images.cars.com/phototab/DMI/104765/176327/24.jpg
p1063
aVhttp://images.cars.com/phototab/DMI/104765/176327/03.jpg
p1064
aVhttp://images.cars.com/phototab/DMI/2191586/7517/06.jpg
p1065
aVhttp://images.cars.com/phototab/DMI/104765/176327/14.jpg
p1066
aVhttp://images.cars.com/phototab/DMI/110229/GA10082A/32.jpg
p1067
aVhttp://images.cars.com/phototab/DMI/2191586/7517/01.jpg
p1068
aVhttp://images.cars.com/phototab/DMI/104765/176327/20.jpg
p1069
aVhttp://images.cars.com/phototab/DMI/110229/GA10082A/10.jpg
p1070
aVhttp://images.cars.com/phototab/DMI/104765/176327/07.jpg
p1071
aVhttp://images.cars.com/phototab/DMI/2191586/7517/24.jpg
p1072
aVhttp://images.cars.com/phototab/DMI/21711/M011239A/02.jpg
p1073
aVhttp://images.cars.com/phototab/DMI/98861/4793/30.jpg
p1074
aVhttp://images.cars.com/phototab/DMI/104765/176327/13.jpg
p1075
aVhttp://images.cars.com/phototab/DMI/2191586/7517/10.jpg
p1076
aVhttp://images.cars.com/phototab/DMI/104765/176327/06.jpg
p1077
aVhttp://images.cars.com/phototab/DMI/110229/GA10082A/02.jpg
p1078
aVhttp://images.cars.com/phototab/DMI/104765/176327/01.jpg
p1079
aVhttp://images.cars.com/phototab/DMI/2191586/7517/31.jpg
p1080
aVhttp://images.cars.com/phototab/DMI/2191586/7517/32.jpg
p1081
aVhttp://images.cars.com/phototab/DMI/21711/M011239A/26.jpg
p1082
aVhttp://images.cars.com/phototab/DMI/98861/4793/14.jpg
p1083
aVhttp://images.cars.com/phototab/DMI/2191586/7517/30.jpg
p1084
aVhttp://images.cars.com/phototab/DMI/110229/GA10082A/03.jpg
p1085
aVhttp://images.cars.com/phototab/DMI/98861/4793/10.jpg
p1086
aVhttp://images.cars.com/phototab/DMI/2191586/7517/25.jpg
p1087
aVhttp://images.cars.com/phototab/DMI/2191586/7517/23.jpg
p1088
aVhttp://images.cars.com/phototab/DMI/2191586/7517/22.jpg
p1089
aVhttp://images.cars.com/phototab/DMI/2191586/7517/18.jpg
p1090
aVhttp://images.cars.com/phototab/DMI/2191586/7517/09.jpg
p1091
aVhttp://images.cars.com/phototab/DMI/2191586/7517/28.jpg
p1092
aVhttp://images.cars.com/phototab/DMI/98861/4793/11.jpg
p1093
aVhttp://images.cars.com/phototab/DMI/21711/M011239A/07.jpg
p1094
aVhttp://images.cars.com/phototab/DMI/2191586/7517/05.jpg
p1095
aVhttp://images.cars.com/phototab/DMI/104765/176327/05.jpg
p1096
aVhttp://images.cars.com/phototab/DMI/98861/4793/04.jpg
p1097
aVhttp://images.cars.com/phototab/DMI/110229/GA10082A/28.jpg
p1098
aVhttp://images.cars.com/phototab/DMI/2191586/7517/17.jpg
p1099
aVhttp://images.cars.com/phototab/DMI/110229/GA10082A/16.jpg
p1100
aVhttp://images.cars.com/phototab/DMI/98861/4793/08.jpg
p1101
aVhttp://images.cars.com/phototab/DMI/110229/GA10082A/01.jpg
p1102
aVhttp://images.cars.com/phototab/DMI/2191586/7517/11.jpg
p1103
aVhttp://images.cars.com/phototab/DMI/2191586/7517/03.jpg
p1104
aVhttp://images.cars.com/phototab/DMI/98861/4793/32.jpg
p1105
aVhttp://images.cars.com/phototab/DMI/98861/4793/23.jpg
p1106
aVhttp://images.cars.com/phototab/DMI/2191586/7517/04.jpg
p1107
aVhttp://images.cars.com/phototab/DMI/98861/4793/13.jpg
p1108
aVhttp://images.cars.com/phototab/DMI/98861/4793/20.jpg
p1109
aVhttp://images.cars.com/phototab/DMI/2191586/7517/19.jpg
p1110
aVhttp://images.cars.com/phototab/DMI/104765/176327/31.jpg
p1111
aVhttp://images.cars.com/phototab/DMI/21711/M011239A/31.jpg
p1112
aVhttp://images.cars.com/phototab/DMI/104765/176327/12.jpg
p1113
aVhttp://images.cars.com/phototab/DMI/98861/4793/05.jpg
p1114
aVhttp://images.cars.com/phototab/DMI/104765/176327/15.jpg
p1115
aVhttp://images.cars.com/phototab/DMI/104765/176327/22.jpg
p1116
aVhttp://images.cars.com/phototab/DMI/98861/4793/22.jpg
p1117
aVhttp://images.cars.com/phototab/DMI/2191586/7517/02.jpg
p1118
aVhttp://images.cars.com/phototab/DMI/110229/GA10082A/30.jpg
p1119
aVhttp://images.cars.com/phototab/DMI/21711/M011239A/30.jpg
p1120
aVhttp://images.cars.com/phototab/DMI/98861/4793/21.jpg
p1121
aVhttp://images.cars.com/phototab/DMI/2191586/7517/12.jpg
p1122
aVhttp://images.cars.com/phototab/DMI/98861/4793/31.jpg
p1123
aVhttp://images.cars.com/phototab/DMI/110229/GA10082A/07.jpg
p1124
aVhttp://images.cars.com/phototab/DMI/98861/4793/09.jpg
p1125
aVhttp://images.cars.com/phototab/DMI/2191586/7517/16.jpg
p1126
aVhttp://images.cars.com/phototab/DMI/110229/GA10082A/17.jpg
p1127
aVhttp://images.cars.com/phototab/DMI/98861/4793/07.jpg
p1128
aVhttp://images.cars.com/phototab/DMI/110229/GA10082A/05.jpg
p1129
aVhttp://images.cars.com/phototab/DMI/2191586/7517/14.jpg
p1130
aVhttp://images.cars.com/phototab/DMI/98861/4793/26.jpg
p1131
aVhttp://images.cars.com/phototab/DMI/2191586/7517/26.jpg
p1132
aVhttp://images.cars.com/phototab/DMI/98861/4793/16.jpg
p1133
aVhttp://images.cars.com/phototab/DMI/110229/GA10082A/13.jpg
p1134
aVhttp://images.cars.com/phototab/DMI/110229/GA10082A/25.jpg
p1135
aVhttp://images.cars.com/phototab/DMI/104765/176327/28.jpg
p1136
aVhttp://images.cars.com/phototab/DMI/104765/176327/02.jpg
p1137
aVhttp://images.cars.com/phototab/DMI/2191586/7517/13.jpg
p1138
aVhttp://images.cars.com/phototab/DMI/98861/4793/03.jpg
p1139
aVhttp://images.cars.com/phototab/DMI/21711/M011239A/14.jpg
p1140
aVhttp://images.cars.com/phototab/DMI/110229/GA10082A/26.jpg
p1141
aVhttp://images.cars.com/phototab/DMI/104765/176327/11.jpg
p1142
aVhttp://images.cars.com/phototab/DMI/2191586/7517/07.jpg
p1143
aVhttp://images.cars.com/phototab/DMI/104765/176327/19.jpg
p1144
aVhttp://images.cars.com/phototab/DMI/98861/4793/18.jpg
p1145
aVhttp://images.cars.com/phototab/DMI/2191586/7517/08.jpg
p1146
aVhttp://images.cars.com/phototab/DMI/2191586/7517/29.jpg
p1147
aVhttp://images.cars.com/phototab/DMI/2191586/7517/15.jpg
p1148
aVhttp://images.cars.com/phototab/DMI/98861/4793/25.jpg
p1149
aVhttp://images.cars.com/phototab/DMI/110229/GA10082A/18.jpg
p1150
aVhttp://images.cars.com/phototab/DMI/2191586/7517/21.jpg
p1151
aVhttp://images.cars.com/phototab/DMI/98861/4793/17.jpg
p1152
aVhttp://images.cars.com/phototab/DMI/98861/4793/29.jpg
p1153
aVhttp://images.cars.com/phototab/DMI/98861/4793/15.jpg
p1154
aVhttp://images.cars.com/phototab/DMI/21711/M011239A/16.jpg
p1155
aVhttp://images.cars.com/phototab/DMI/104765/176327/04.jpg
p1156
aVhttp://images.cars.com/phototab/DMI/98861/4793/27.jpg
p1157
aVhttp://images.cars.com/phototab/DMI/110229/GA10082A/11.jpg
p1158
aVhttp://images.cars.com/phototab/DMI/104765/176327/10.jpg
p1159
aVhttp://images.cars.com/phototab/DMI/104765/176327/23.jpg
p1160
aVhttp://images.cars.com/phototab/DMI/98861/4793/12.jpg
p1161
aVhttp://images.cars.com/phototab/DMI/104765/176327/08.jpg
p1162
aVhttp://images.cars.com/phototab/DMI/110229/GA10082A/04.jpg
p1163
aVhttp://images.cars.com/phototab/DMI/104765/176327/16.jpg
p1164
aVhttp://images.cars.com/phototab/DMI/98861/4793/06.jpg
p1165
aVhttp://images.cars.com/phototab/DMI/98861/4793/02.jpg
p1166
aVhttp://images.cars.com/phototab/DMI/98861/4793/28.jpg
p1167
asVmercedes-benz_e_class_w212__/__c207__(facelift__2013)_sedan
p1168
(lp1169
Vhttp://images.cars.com/phototab/DMI/7799/REB031518/32.jpg
p1170
aVhttp://images.cars.com/phototab/DMI/7799/REB031518/31.jpg
p1171
aVhttp://images.cars.com/phototab/DMI/7799/REB031518/28.jpg
p1172
aVhttp://images.cars.com/phototab/DMI/7799/REB031518/27.jpg
p1173
aVhttp://images.cars.com/phototab/DMI/7799/REB031518/26.jpg
p1174
aVhttp://images.cars.com/phototab/DMI/7799/REB031518/23.jpg
p1175
aVhttp://images.cars.com/phototab/DMI/7799/REB031518/20.jpg
p1176
aVhttp://images.cars.com/phototab/DMI/7799/REB031518/19.jpg
p1177
aVhttp://images.cars.com/phototab/DMI/7799/REB031518/21.jpg
p1178
aVhttp://images.cars.com/phototab/DMI/7799/REB031518/15.jpg
p1179
aVhttp://images.cars.com/phototab/DMI/7799/REB031518/14.jpg
p1180
aVhttp://images.cars.com/phototab/DMI/7799/REB031518/13.jpg
p1181
aVhttp://images.cars.com/phototab/DMI/7799/REB031518/11.jpg
p1182
aVhttp://images.cars.com/phototab/DMI/7799/REB031518/09.jpg
p1183
aVhttp://images.cars.com/phototab/DMI/7799/REB031518/06.jpg
p1184
aVhttp://images.cars.com/phototab/DMI/7799/REB031518/05.jpg
p1185
aVhttp://images.cars.com/phototab/DMI/7799/REB031518/01.jpg
p1186
aVhttp://images.cars.com/phototab/DMI/23056/P947605/29.jpg
p1187
aVhttp://images.cars.com/phototab/DMI/23056/P947605/25.jpg
p1188
aVhttp://images.cars.com/phototab/DMI/23056/P947605/24.jpg
p1189
aVhttp://images.cars.com/phototab/DMI/23056/P947605/21.jpg
p1190
aVhttp://images.cars.com/phototab/DMI/23056/P947605/19.jpg
p1191
aVhttp://images.cars.com/phototab/DMI/23056/P947605/16.jpg
p1192
aVhttp://images.cars.com/phototab/DMI/23056/P947605/14.jpg
p1193
aVhttp://images.cars.com/phototab/DMI/23056/P947605/11.jpg
p1194
aVhttp://images.cars.com/phototab/DMI/23056/P947605/07.jpg
p1195
aVhttp://images.cars.com/phototab/DMI/23056/P947605/04.jpg
p1196
aVhttp://images.cars.com/phototab/DMI/23056/P947605/03.jpg
p1197
aVhttp://images.cars.com/phototab/DMI/149858/P4549/31.jpg
p1198
aVhttp://images.cars.com/phototab/DMI/149858/P4549/30.jpg
p1199
aVhttp://images.cars.com/phototab/DMI/149858/P4549/29.jpg
p1200
aVhttp://images.cars.com/phototab/DMI/149858/P4549/28.jpg
p1201
aVhttp://images.cars.com/phototab/DMI/149858/P4549/26.jpg
p1202
aVhttp://images.cars.com/phototab/DMI/149858/P4549/25.jpg
p1203
aVhttp://images.cars.com/phototab/DMI/149858/P4549/23.jpg
p1204
aVhttp://images.cars.com/phototab/DMI/149858/P4549/21.jpg
p1205
aVhttp://images.cars.com/phototab/DMI/149858/P4549/19.jpg
p1206
aVhttp://images.cars.com/phototab/DMI/149858/P4549/18.jpg
p1207
aVhttp://images.cars.com/phototab/DMI/149858/P4549/16.jpg
p1208
aVhttp://images.cars.com/phototab/DMI/149858/P4549/13.jpg
p1209
aVhttp://images.cars.com/phototab/DMI/149858/P4549/11.jpg
p1210
aVhttp://images.cars.com/phototab/DMI/149858/P4549/10.jpg
p1211
aVhttp://images.cars.com/phototab/DMI/149858/P4549/09.jpg
p1212
aVhttp://images.cars.com/phototab/DMI/149858/P4549/08.jpg
p1213
aVhttp://images.cars.com/phototab/DMI/149858/P4549/07.jpg
p1214
aVhttp://images.cars.com/phototab/DMI/149858/P4549/06.jpg
p1215
aVhttp://images.cars.com/phototab/DMI/149858/P4549/05.jpg
p1216
aVhttp://images.cars.com/phototab/DMI/149858/P4549/03.jpg
p1217
aVhttp://images.cars.com/phototab/DMI/149858/P4549/02.jpg
p1218
aVhttp://images.cars.com/phototab/DMI/23056/P947605/05.jpg
p1219
aVhttp://images.cars.com/phototab/DMI/149858/P4549/01.jpg
p1220
aVhttp://images.cars.com/phototab/DMI/18343/M40888/31.jpg
p1221
aVhttp://images.cars.com/phototab/DMI/18343/M40888/29.jpg
p1222
aVhttp://images.cars.com/phototab/DMI/18343/M40888/28.jpg
p1223
aVhttp://images.cars.com/phototab/DMI/18343/M40888/27.jpg
p1224
aVhttp://images.cars.com/phototab/DMI/18343/M40888/26.jpg
p1225
aVhttp://images.cars.com/phototab/DMI/18343/M40888/22.jpg
p1226
aVhttp://images.cars.com/phototab/DMI/18343/M40888/17.jpg
p1227
aVhttp://images.cars.com/phototab/DMI/18343/M40888/13.jpg
p1228
aVhttp://images.cars.com/phototab/DMI/18343/M40888/09.jpg
p1229
aVhttp://images.cars.com/phototab/DMI/18343/M40888/08.jpg
p1230
aVhttp://images.cars.com/phototab/DMI/18343/M40888/02.jpg
p1231
aVhttp://images.cars.com/phototab/DMI/18343/M40888/01.jpg
p1232
aVhttp://images.cars.com/phototab/DMI/100273/946085/31.jpg
p1233
aVhttp://images.cars.com/phototab/DMI/100273/946085/28.jpg
p1234
aVhttp://images.cars.com/phototab/DMI/100273/946085/27.jpg
p1235
aVhttp://images.cars.com/phototab/DMI/100273/946085/26.jpg
p1236
aVhttp://images.cars.com/phototab/DMI/149858/P4549/17.jpg
p1237
aVhttp://images.cars.com/phototab/DMI/100273/946085/25.jpg
p1238
aVhttp://images.cars.com/phototab/DMI/100273/946085/23.jpg
p1239
aVhttp://images.cars.com/phototab/DMI/100273/946085/22.jpg
p1240
aVhttp://images.cars.com/phototab/DMI/100273/946085/21.jpg
p1241
aVhttp://images.cars.com/phototab/DMI/100273/946085/20.jpg
p1242
aVhttp://images.cars.com/phototab/DMI/100273/946085/19.jpg
p1243
aVhttp://images.cars.com/phototab/DMI/100273/946085/18.jpg
p1244
aVhttp://images.cars.com/phototab/DMI/100273/946085/16.jpg
p1245
aVhttp://images.cars.com/phototab/DMI/100273/946085/13.jpg
p1246
aVhttp://images.cars.com/phototab/DMI/100273/946085/12.jpg
p1247
aVhttp://images.cars.com/phototab/DMI/100273/946085/09.jpg
p1248
aVhttp://images.cars.com/phototab/DMI/100273/946085/07.jpg
p1249
aVhttp://images.cars.com/phototab/DMI/100273/946085/06.jpg
p1250
aVhttp://images.cars.com/phototab/DMI/100273/946085/05.jpg
p1251
aVhttp://images.cars.com/phototab/DMI/100273/946085/03.jpg
p1252
aVhttp://images.cars.com/phototab/DMI/100273/946085/02.jpg
p1253
aVhttp://images.cars.com/phototab/DMI/100273/946085/01.jpg
p1254
aVhttp://images.cars.com/phototab/DMI/211170/FA612747C/31.jpg
p1255
aVhttp://images.cars.com/phototab/DMI/211170/FA612747C/30.jpg
p1256
aVhttp://images.cars.com/phototab/DMI/211170/FA612747C/29.jpg
p1257
aVhttp://images.cars.com/phototab/DMI/211170/FA612747C/28.jpg
p1258
aVhttp://images.cars.com/phototab/DMI/211170/FA612747C/27.jpg
p1259
aVhttp://images.cars.com/phototab/DMI/211170/FA612747C/26.jpg
p1260
aVhttp://images.cars.com/phototab/DMI/211170/FA612747C/25.jpg
p1261
aVhttp://images.cars.com/phototab/DMI/211170/FA612747C/24.jpg
p1262
aVhttp://images.cars.com/phototab/DMI/211170/FA612747C/23.jpg
p1263
aVhttp://images.cars.com/phototab/DMI/211170/FA612747C/22.jpg
p1264
aVhttp://images.cars.com/phototab/DMI/211170/FA612747C/19.jpg
p1265
aVhttp://images.cars.com/phototab/DMI/211170/FA612747C/18.jpg
p1266
aVhttp://images.cars.com/phototab/DMI/211170/FA612747C/17.jpg
p1267
aVhttp://images.cars.com/phototab/DMI/211170/FA612747C/16.jpg
p1268
aVhttp://images.cars.com/phototab/DMI/211170/FA612747C/15.jpg
p1269
aVhttp://images.cars.com/phototab/DMI/211170/FA612747C/14.jpg
p1270
aVhttp://images.cars.com/phototab/DMI/211170/FA612747C/10.jpg
p1271
aVhttp://images.cars.com/phototab/DMI/211170/FA612747C/09.jpg
p1272
aVhttp://images.cars.com/phototab/DMI/211170/FA612747C/07.jpg
p1273
aVhttp://images.cars.com/phototab/DMI/90080/EA843761L/31.jpg
p1274
aVhttp://images.cars.com/phototab/DMI/90080/EA843761L/30.jpg
p1275
aVhttp://images.cars.com/phototab/DMI/90080/EA843761L/29.jpg
p1276
aVhttp://images.cars.com/phototab/DMI/90080/EA843761L/26.jpg
p1277
aVhttp://images.cars.com/phototab/DMI/90080/EA843761L/24.jpg
p1278
aVhttp://images.cars.com/phototab/DMI/90080/EA843761L/23.jpg
p1279
aVhttp://images.cars.com/phototab/DMI/90080/EA843761L/21.jpg
p1280
aVhttp://images.cars.com/phototab/DMI/90080/EA843761L/20.jpg
p1281
aVhttp://images.cars.com/phototab/DMI/90080/EA843761L/17.jpg
p1282
aVhttp://images.cars.com/phototab/DMI/90080/EA843761L/16.jpg
p1283
aVhttp://images.cars.com/phototab/DMI/90080/EA843761L/14.jpg
p1284
aVhttp://images.cars.com/phototab/DMI/90080/EA843761L/12.jpg
p1285
aVhttp://images.cars.com/phototab/DMI/90080/EA843761L/08.jpg
p1286
aVhttp://images.cars.com/phototab/DMI/90080/EA843761L/07.jpg
p1287
aVhttp://images.cars.com/phototab/DMI/90080/EA843761L/03.jpg
p1288
aVhttp://images.cars.com/phototab/DMI/90080/EA843761L/02.jpg
p1289
aVhttp://images.cars.com/phototab/DMI/90080/EA843761L/01.jpg
p1290
aVhttp://images.cars.com/phototab/DMI/3359/M8290/32.jpg
p1291
aVhttp://images.cars.com/phototab/DMI/3359/M8290/31.jpg
p1292
aVhttp://images.cars.com/phototab/DMI/3359/M8290/30.jpg
p1293
aVhttp://images.cars.com/phototab/DMI/3359/M8290/26.jpg
p1294
aVhttp://images.cars.com/phototab/DMI/3359/M8290/24.jpg
p1295
aVhttp://images.cars.com/phototab/DMI/3359/M8290/21.jpg
p1296
aVhttp://images.cars.com/phototab/DMI/3359/M8290/18.jpg
p1297
aVhttp://images.cars.com/phototab/DMI/3359/M8290/14.jpg
p1298
aVhttp://images.cars.com/phototab/DMI/3359/M8290/13.jpg
p1299
aVhttp://images.cars.com/phototab/DMI/3359/M8290/10.jpg
p1300
aVhttp://images.cars.com/phototab/DMI/3359/M8290/08.jpg
p1301
aVhttp://images.cars.com/phototab/DMI/3359/M8290/07.jpg
p1302
aVhttp://images.cars.com/phototab/DMI/3359/M8290/06.jpg
p1303
aVhttp://images.cars.com/phototab/DMI/3359/M8290/03.jpg
p1304
aVhttp://images.cars.com/phototab/DMI/11646/R615/31.jpg
p1305
aVhttp://images.cars.com/phototab/DMI/11646/R615/20.jpg
p1306
aVhttp://images.cars.com/phototab/DMI/11646/R615/19.jpg
p1307
aVhttp://images.cars.com/phototab/DMI/11646/R615/18.jpg
p1308
aVhttp://images.cars.com/phototab/DMI/11646/R615/16.jpg
p1309
aVhttp://images.cars.com/phototab/DMI/11646/R615/15.jpg
p1310
aVhttp://images.cars.com/phototab/DMI/11646/R615/14.jpg
p1311
aVhttp://images.cars.com/phototab/DMI/11646/R615/13.jpg
p1312
aVhttp://images.cars.com/phototab/DMI/11646/R615/12.jpg
p1313
aVhttp://images.cars.com/phototab/DMI/11646/R615/09.jpg
p1314
aVhttp://images.cars.com/phototab/DMI/11646/R615/08.jpg
p1315
aVhttp://images.cars.com/phototab/DMI/11646/R615/06.jpg
p1316
aVhttp://images.cars.com/phototab/DMI/11646/R615/05.jpg
p1317
aVhttp://images.cars.com/phototab/DMI/11646/R615/03.jpg
p1318
aVhttp://images.cars.com/phototab/DMI/177262/DA715370/29.jpg
p1319
aVhttp://images.cars.com/phototab/DMI/177262/DA715370/28.jpg
p1320
aVhttp://images.cars.com/phototab/DMI/177262/DA715370/25.jpg
p1321
aVhttp://images.cars.com/phototab/DMI/177262/DA715370/24.jpg
p1322
aVhttp://images.cars.com/phototab/DMI/177262/DA715370/21.jpg
p1323
aVhttp://images.cars.com/phototab/DMI/177262/DA715370/19.jpg
p1324
aVhttp://images.cars.com/phototab/DMI/177262/DA715370/14.jpg
p1325
aVhttp://images.cars.com/phototab/DMI/177262/DA715370/12.jpg
p1326
aVhttp://images.cars.com/phototab/DMI/177262/DA715370/09.jpg
p1327
aVhttp://images.cars.com/phototab/DMI/177262/DA715370/08.jpg
p1328
aVhttp://images.cars.com/phototab/DMI/177262/DA715370/07.jpg
p1329
aVhttp://images.cars.com/phototab/DMI/177262/DA715370/03.jpg
p1330
aVhttp://images.cars.com/phototab/DMI/177262/DA715370/01.jpg
p1331
aVhttp://images.cars.com/phototab/DMI/158948/C12005/30.jpg
p1332
aVhttp://images.cars.com/phototab/DMI/158948/C12005/29.jpg
p1333
aVhttp://images.cars.com/phototab/DMI/158948/C12005/26.jpg
p1334
aVhttp://images.cars.com/phototab/DMI/158948/C12005/23.jpg
p1335
aVhttp://images.cars.com/phototab/DMI/158948/C12005/21.jpg
p1336
aVhttp://images.cars.com/phototab/DMI/158948/C12005/20.jpg
p1337
aVhttp://images.cars.com/phototab/DMI/158948/C12005/19.jpg
p1338
aVhttp://images.cars.com/phototab/DMI/158948/C12005/18.jpg
p1339
aVhttp://images.cars.com/phototab/DMI/158948/C12005/17.jpg
p1340
aVhttp://images.cars.com/phototab/DMI/158948/C12005/15.jpg
p1341
aVhttp://images.cars.com/phototab/DMI/158948/C12005/14.jpg
p1342
aVhttp://images.cars.com/phototab/DMI/158948/C12005/13.jpg
p1343
aVhttp://images.cars.com/phototab/DMI/158948/C12005/12.jpg
p1344
aVhttp://images.cars.com/phototab/DMI/158948/C12005/10.jpg
p1345
aVhttp://images.cars.com/phototab/DMI/158948/C12005/09.jpg
p1346
aVhttp://images.cars.com/phototab/DMI/158948/C12005/07.jpg
p1347
aVhttp://images.cars.com/phototab/DMI/158948/C12005/05.jpg
p1348
aVhttp://images.cars.com/phototab/DMI/158948/C12005/04.jpg
p1349
aVhttp://images.cars.com/phototab/DMI/205425/2534/30.jpg
p1350
aVhttp://images.cars.com/phototab/DMI/205425/2534/29.jpg
p1351
aVhttp://images.cars.com/phototab/DMI/205425/2534/28.jpg
p1352
aVhttp://images.cars.com/phototab/DMI/205425/2534/27.jpg
p1353
aVhttp://images.cars.com/phototab/DMI/205425/2534/25.jpg
p1354
aVhttp://images.cars.com/phototab/DMI/205425/2534/23.jpg
p1355
aVhttp://images.cars.com/phototab/DMI/205425/2534/22.jpg
p1356
aVhttp://images.cars.com/phototab/DMI/205425/2534/21.jpg
p1357
aVhttp://images.cars.com/phototab/DMI/205425/2534/19.jpg
p1358
aVhttp://images.cars.com/phototab/DMI/205425/2534/17.jpg
p1359
aVhttp://images.cars.com/phototab/DMI/205425/2534/16.jpg
p1360
aVhttp://images.cars.com/phototab/DMI/205425/2534/13.jpg
p1361
aVhttp://images.cars.com/phototab/DMI/205425/2534/10.jpg
p1362
aVhttp://images.cars.com/phototab/DMI/205425/2534/08.jpg
p1363
aVhttp://images.cars.com/phototab/DMI/205425/2534/07.jpg
p1364
aVhttp://images.cars.com/phototab/DMI/205425/2534/04.jpg
p1365
aVhttp://images.cars.com/phototab/DMI/205425/2534/03.jpg
p1366
aVhttp://images.cars.com/phototab/DMI/205425/2534/02.jpg
p1367
aVhttp://images.cars.com/phototab/DMI/205425/2534/01.jpg
p1368
aVhttp://images.cars.com/phototab/DMI/5342460/931372/32.jpg
p1369
aVhttp://images.cars.com/phototab/DMI/5342460/931372/30.jpg
p1370
aVhttp://images.cars.com/phototab/DMI/5342460/931372/29.jpg
p1371
aVhttp://images.cars.com/phototab/DMI/5342460/931372/27.jpg
p1372
aVhttp://images.cars.com/phototab/DMI/5342460/931372/26.jpg
p1373
aVhttp://images.cars.com/phototab/DMI/5342460/931372/25.jpg
p1374
aVhttp://images.cars.com/phototab/DMI/5342460/931372/22.jpg
p1375
aVhttp://images.cars.com/phototab/DMI/5342460/931372/21.jpg
p1376
aVhttp://images.cars.com/phototab/DMI/5342460/931372/20.jpg
p1377
aVhttp://images.cars.com/phototab/DMI/5342460/931372/19.jpg
p1378
aVhttp://images.cars.com/phototab/DMI/5342460/931372/14.jpg
p1379
aVhttp://images.cars.com/phototab/DMI/5342460/931372/13.jpg
p1380
aVhttp://images.cars.com/phototab/DMI/5342460/931372/12.jpg
p1381
aVhttp://images.cars.com/phototab/DMI/5342460/931372/10.jpg
p1382
aVhttp://images.cars.com/phototab/DMI/5342460/931372/09.jpg
p1383
aVhttp://images.cars.com/phototab/DMI/5342460/931372/07.jpg
p1384
aVhttp://images.cars.com/phototab/DMI/5342460/931372/06.jpg
p1385
aVhttp://images.cars.com/phototab/DMI/5342460/931372/05.jpg
p1386
aVhttp://images.cars.com/phototab/DMI/5348086/97432/32.jpg
p1387
aVhttp://images.cars.com/phototab/DMI/5348086/97432/30.jpg
p1388
aVhttp://images.cars.com/phototab/DMI/5348086/97432/29.jpg
p1389
aVhttp://images.cars.com/phototab/DMI/5348086/97432/28.jpg
p1390
aVhttp://images.cars.com/phototab/DMI/7799/REB031518/25.jpg
p1391
aVhttp://images.cars.com/phototab/DMI/5348086/97432/27.jpg
p1392
aVhttp://images.cars.com/phototab/DMI/5348086/97432/24.jpg
p1393
aVhttp://images.cars.com/phototab/DMI/5348086/97432/23.jpg
p1394
aVhttp://images.cars.com/phototab/DMI/5348086/97432/22.jpg
p1395
aVhttp://images.cars.com/phototab/DMI/5348086/97432/21.jpg
p1396
aVhttp://images.cars.com/phototab/DMI/5348086/97432/20.jpg
p1397
aVhttp://images.cars.com/phototab/DMI/5348086/97432/17.jpg
p1398
aVhttp://images.cars.com/phototab/DMI/5348086/97432/15.jpg
p1399
aVhttp://images.cars.com/phototab/DMI/5348086/97432/12.jpg
p1400
aVhttp://images.cars.com/phototab/DMI/5348086/97432/10.jpg
p1401
aVhttp://images.cars.com/phototab/DMI/23056/P947605/09.jpg
p1402
aVhttp://images.cars.com/phototab/DMI/5348086/97432/09.jpg
p1403
aVhttp://images.cars.com/phototab/DMI/5348086/97432/08.jpg
p1404
aVhttp://images.cars.com/phototab/DMI/5348086/97432/07.jpg
p1405
aVhttp://images.cars.com/phototab/DMI/5348086/97432/02.jpg
p1406
aVhttp://images.cars.com/phototab/DMI/5348086/97432/01.jpg
p1407
aVhttp://images.cars.com/phototab/DMI/152454/685135A1/31.jpg
p1408
aVhttp://images.cars.com/phototab/DMI/152454/685135A1/29.jpg
p1409
aVhttp://images.cars.com/phototab/DMI/152454/685135A1/28.jpg
p1410
aVhttp://images.cars.com/phototab/DMI/152454/685135A1/27.jpg
p1411
aVhttp://images.cars.com/phototab/DMI/152454/685135A1/26.jpg
p1412
aVhttp://images.cars.com/phototab/DMI/152454/685135A1/24.jpg
p1413
aVhttp://images.cars.com/phototab/DMI/152454/685135A1/22.jpg
p1414
aVhttp://images.cars.com/phototab/DMI/152454/685135A1/21.jpg
p1415
aVhttp://images.cars.com/phototab/DMI/90080/EA843761L/04.jpg
p1416
aVhttp://images.cars.com/phototab/DMI/152454/685135A1/19.jpg
p1417
aVhttp://images.cars.com/phototab/DMI/152454/685135A1/17.jpg
p1418
aVhttp://images.cars.com/phototab/DMI/152454/685135A1/16.jpg
p1419
aVhttp://images.cars.com/phototab/DMI/100273/946085/11.jpg
p1420
aVhttp://images.cars.com/phototab/DMI/152454/685135A1/14.jpg
p1421
aVhttp://images.cars.com/phototab/DMI/152454/685135A1/12.jpg
p1422
aVhttp://images.cars.com/phototab/DMI/152454/685135A1/10.jpg
p1423
aVhttp://images.cars.com/phototab/DMI/152454/685135A1/09.jpg
p1424
aVhttp://images.cars.com/phototab/DMI/152454/685135A1/04.jpg
p1425
aVhttp://images.cars.com/phototab/DMI/152454/685135A1/03.jpg
p1426
aVhttp://images.cars.com/phototab/DMI/149858/P4549/04.jpg
p1427
aVhttp://images.cars.com/phototab/DMI/152454/685135A1/02.jpg
p1428
aVhttp://images.cars.com/phototab/DMI/5350625/1651/31.jpg
p1429
aVhttp://images.cars.com/phototab/DMI/5350625/1651/29.jpg
p1430
aVhttp://images.cars.com/phototab/DMI/5350625/1651/25.jpg
p1431
aVhttp://images.cars.com/phototab/DMI/5350625/1651/20.jpg
p1432
aVhttp://images.cars.com/phototab/DMI/5350625/1651/19.jpg
p1433
aVhttp://images.cars.com/phototab/DMI/5350625/1651/15.jpg
p1434
aVhttp://images.cars.com/phototab/DMI/5350625/1651/14.jpg
p1435
aVhttp://images.cars.com/phototab/DMI/5350625/1651/12.jpg
p1436
aVhttp://images.cars.com/phototab/DMI/5350625/1651/09.jpg
p1437
aVhttp://images.cars.com/phototab/DMI/5350625/1651/07.jpg
p1438
aVhttp://images.cars.com/phototab/DMI/5350625/1651/05.jpg
p1439
aVhttp://images.cars.com/phototab/DMI/5350625/1651/04.jpg
p1440
aVhttp://images.cars.com/phototab/DMI/5350625/1651/01.jpg
p1441
aVhttp://images.cars.com/phototab/DMI/100231/EA947029/30.jpg
p1442
aVhttp://images.cars.com/phototab/DMI/5348086/97432/05.jpg
p1443
aVhttp://images.cars.com/phototab/DMI/100231/EA947029/29.jpg
p1444
aVhttp://images.cars.com/phototab/DMI/100231/EA947029/28.jpg
p1445
aVhttp://images.cars.com/phototab/DMI/100231/EA947029/27.jpg
p1446
aVhttp://images.cars.com/phototab/DMI/100231/EA947029/25.jpg
p1447
aVhttp://images.cars.com/phototab/DMI/100231/EA947029/24.jpg
p1448
aVhttp://images.cars.com/phototab/DMI/100231/EA947029/22.jpg
p1449
aVhttp://images.cars.com/phototab/DMI/100231/EA947029/20.jpg
p1450
aVhttp://images.cars.com/phototab/DMI/100231/EA947029/19.jpg
p1451
aVhttp://images.cars.com/phototab/DMI/177262/DA715370/04.jpg
p1452
aVhttp://images.cars.com/phototab/DMI/100231/EA947029/18.jpg
p1453
aVhttp://images.cars.com/phototab/DMI/100231/EA947029/17.jpg
p1454
aVhttp://images.cars.com/phototab/DMI/100231/EA947029/14.jpg
p1455
aVhttp://images.cars.com/phototab/DMI/100231/EA947029/12.jpg
p1456
aVhttp://images.cars.com/phototab/DMI/100231/EA947029/11.jpg
p1457
aVhttp://images.cars.com/phototab/DMI/100231/EA947029/07.jpg
p1458
aVhttp://images.cars.com/phototab/DMI/100231/EA947029/06.jpg
p1459
aVhttp://images.cars.com/phototab/DMI/100231/EA947029/05.jpg
p1460
aVhttp://images.cars.com/phototab/DMI/100231/EA947029/03.jpg
p1461
aVhttp://images.cars.com/phototab/DMI/100231/EA947029/01.jpg
p1462
aVhttp://images.cars.com/phototab/DMI/205425/2266/30.jpg
p1463
aVhttp://images.cars.com/phototab/DMI/205425/2266/27.jpg
p1464
aVhttp://images.cars.com/phototab/DMI/205425/2266/24.jpg
p1465
aVhttp://images.cars.com/phototab/DMI/205425/2266/23.jpg
p1466
aVhttp://images.cars.com/phototab/DMI/5342460/931372/08.jpg
p1467
aVhttp://images.cars.com/phototab/DMI/205425/2266/22.jpg
p1468
aVhttp://images.cars.com/phototab/DMI/205425/2266/21.jpg
p1469
aVhttp://images.cars.com/phototab/DMI/205425/2266/20.jpg
p1470
aVhttp://images.cars.com/phototab/DMI/7799/REB031518/29.jpg
p1471
aVhttp://images.cars.com/phototab/DMI/205425/2266/19.jpg
p1472
aVhttp://images.cars.com/phototab/DMI/205425/2266/18.jpg
p1473
aVhttp://images.cars.com/phototab/DMI/205425/2266/17.jpg
p1474
aVhttp://images.cars.com/phototab/DMI/205425/2266/12.jpg
p1475
aVhttp://images.cars.com/phototab/DMI/205425/2266/09.jpg
p1476
aVhttp://images.cars.com/phototab/DMI/205425/2266/08.jpg
p1477
aVhttp://images.cars.com/phototab/DMI/205425/2266/06.jpg
p1478
aVhttp://images.cars.com/phototab/DMI/205425/2266/05.jpg
p1479
aVhttp://images.cars.com/phototab/DMI/205425/2266/04.jpg
p1480
aVhttp://images.cars.com/phototab/DMI/205425/2266/03.jpg
p1481
aVhttp://images.cars.com/phototab/DMI/205425/2266/01.jpg
p1482
aVhttp://images.cars.com/phototab/DMI/83609/PC9321/31.jpg
p1483
aVhttp://images.cars.com/phototab/DMI/83609/PC9321/27.jpg
p1484
aVhttp://images.cars.com/phototab/DMI/83609/PC9321/26.jpg
p1485
aVhttp://images.cars.com/phototab/DMI/83609/PC9321/24.jpg
p1486
aVhttp://images.cars.com/phototab/DMI/83609/PC9321/23.jpg
p1487
aVhttp://images.cars.com/phototab/DMI/83609/PC9321/22.jpg
p1488
aVhttp://images.cars.com/phototab/DMI/83609/PC9321/21.jpg
p1489
aVhttp://images.cars.com/phototab/DMI/83609/PC9321/20.jpg
p1490
aVhttp://images.cars.com/phototab/DMI/83609/PC9321/19.jpg
p1491
aVhttp://images.cars.com/phototab/DMI/158948/C12005/03.jpg
p1492
aVhttp://images.cars.com/phototab/DMI/83609/PC9321/17.jpg
p1493
aVhttp://images.cars.com/phototab/DMI/100231/EA947029/10.jpg
p1494
aVhttp://images.cars.com/phototab/DMI/83609/PC9321/15.jpg
p1495
aVhttp://images.cars.com/phototab/DMI/83609/PC9321/14.jpg
p1496
aVhttp://images.cars.com/phototab/DMI/83609/PC9321/13.jpg
p1497
aVhttp://images.cars.com/phototab/DMI/211170/FA612747C/12.jpg
p1498
aVhttp://images.cars.com/phototab/DMI/83609/PC9321/12.jpg
p1499
aVhttp://images.cars.com/phototab/DMI/5342460/931372/17.jpg
p1500
aVhttp://images.cars.com/phototab/DMI/83609/PC9321/11.jpg
p1501
aVhttp://images.cars.com/phototab/DMI/83609/PC9321/10.jpg
p1502
aVhttp://images.cars.com/phototab/DMI/83609/PC9321/08.jpg
p1503
aVhttp://images.cars.com/phototab/DMI/83609/PC9321/05.jpg
p1504
aVhttp://images.cars.com/phototab/DMI/5342460/931372/23.jpg
p1505
aVhttp://images.cars.com/phototab/DMI/83609/PC9321/02.jpg
p1506
aVhttp://images.cars.com/phototab/DMI/83609/PC9321/01.jpg
p1507
aVhttp://images.cars.com/phototab/DMI/205425/2208/29.jpg
p1508
aVhttp://images.cars.com/phototab/DMI/205425/2208/28.jpg
p1509
aVhttp://images.cars.com/phototab/DMI/205425/2208/27.jpg
p1510
aVhttp://images.cars.com/phototab/DMI/205425/2208/26.jpg
p1511
aVhttp://images.cars.com/phototab/DMI/205425/2208/25.jpg
p1512
aVhttp://images.cars.com/phototab/DMI/205425/2208/24.jpg
p1513
aVhttp://images.cars.com/phototab/DMI/205425/2208/22.jpg
p1514
aVhttp://images.cars.com/phototab/DMI/205425/2208/21.jpg
p1515
aVhttp://images.cars.com/phototab/DMI/205425/2208/20.jpg
p1516
aVhttp://images.cars.com/phototab/DMI/205425/2208/18.jpg
p1517
aVhttp://images.cars.com/phototab/DMI/23056/P947605/23.jpg
p1518
aVhttp://images.cars.com/phototab/DMI/205425/2208/15.jpg
p1519
aVhttp://images.cars.com/phototab/DMI/205425/2208/14.jpg
p1520
aVhttp://images.cars.com/phototab/DMI/205425/2208/12.jpg
p1521
aVhttp://images.cars.com/phototab/DMI/152454/685135A1/18.jpg
p1522
aVhttp://images.cars.com/phototab/DMI/205425/2208/10.jpg
p1523
aVhttp://images.cars.com/phototab/DMI/205425/2208/08.jpg
p1524
aVhttp://images.cars.com/phototab/DMI/205425/2208/06.jpg
p1525
aVhttp://images.cars.com/phototab/DMI/205425/2208/04.jpg
p1526
aVhttp://images.cars.com/phototab/DMI/5348086/97432/14.jpg
p1527
aVhttp://images.cars.com/phototab/DMI/205425/2208/03.jpg
p1528
aVhttp://images.cars.com/phototab/DMI/205425/2208/01.jpg
p1529
aVhttp://images.cars.com/phototab/DMI/189397/PM6220/32.jpg
p1530
aVhttp://images.cars.com/phototab/DMI/189397/PM6220/30.jpg
p1531
aVhttp://images.cars.com/phototab/DMI/83609/PC9321/25.jpg
p1532
aVhttp://images.cars.com/phototab/DMI/189397/PM6220/28.jpg
p1533
aVhttp://images.cars.com/phototab/DMI/189397/PM6220/27.jpg
p1534
aVhttp://images.cars.com/phototab/DMI/189397/PM6220/26.jpg
p1535
aVhttp://images.cars.com/phototab/DMI/189397/PM6220/25.jpg
p1536
aVhttp://images.cars.com/phototab/DMI/189397/PM6220/24.jpg
p1537
aVhttp://images.cars.com/phototab/DMI/189397/PM6220/22.jpg
p1538
aVhttp://images.cars.com/phototab/DMI/189397/PM6220/20.jpg
p1539
aVhttp://images.cars.com/phototab/DMI/189397/PM6220/19.jpg
p1540
aVhttp://images.cars.com/phototab/DMI/189397/PM6220/17.jpg
p1541
aVhttp://images.cars.com/phototab/DMI/189397/PM6220/15.jpg
p1542
aVhttp://images.cars.com/phototab/DMI/189397/PM6220/14.jpg
p1543
aVhttp://images.cars.com/phototab/DMI/189397/PM6220/12.jpg
p1544
aVhttp://images.cars.com/phototab/DMI/189397/PM6220/11.jpg
p1545
aVhttp://images.cars.com/phototab/DMI/18343/M40888/21.jpg
p1546
aVhttp://images.cars.com/phototab/DMI/189397/PM6220/10.jpg
p1547
aVhttp://images.cars.com/phototab/DMI/23056/P947605/15.jpg
p1548
aVhttp://images.cars.com/phototab/DMI/189397/PM6220/07.jpg
p1549
aVhttp://images.cars.com/phototab/DMI/189397/PM6220/05.jpg
p1550
aVhttp://images.cars.com/phototab/DMI/189397/PM6220/04.jpg
p1551
aVhttp://images.cars.com/phototab/DMI/189397/PM6220/02.jpg
p1552
aVhttp://images.cars.com/phototab/DMI/189397/PM6220/01.jpg
p1553
aVhttp://images.cars.com/phototab/DMI/152454/685135A1/32.jpg
p1554
aVhttp://images.cars.com/phototab/DMI/205425/2265/32.jpg
p1555
aVhttp://images.cars.com/phototab/DMI/90080/EA843761L/18.jpg
p1556
aVhttp://images.cars.com/phototab/DMI/205425/2265/31.jpg
p1557
aVhttp://images.cars.com/phototab/DMI/205425/2265/30.jpg
p1558
aVhttp://images.cars.com/phototab/DMI/205425/2265/29.jpg
p1559
aVhttp://images.cars.com/phototab/DMI/205425/2265/28.jpg
p1560
aVhttp://images.cars.com/phototab/DMI/205425/2265/27.jpg
p1561
aVhttp://images.cars.com/phototab/DMI/205425/2265/26.jpg
p1562
aVhttp://images.cars.com/phototab/DMI/205425/2265/25.jpg
p1563
aVhttp://images.cars.com/phototab/DMI/11646/R615/32.jpg
p1564
aVhttp://images.cars.com/phototab/DMI/5348086/97432/31.jpg
p1565
aVhttp://images.cars.com/phototab/DMI/205425/2265/23.jpg
p1566
aVhttp://images.cars.com/phototab/DMI/205425/2265/20.jpg
p1567
aVhttp://images.cars.com/phototab/DMI/205425/2265/19.jpg
p1568
aVhttp://images.cars.com/phototab/DMI/205425/2265/18.jpg
p1569
aVhttp://images.cars.com/phototab/DMI/205425/2265/16.jpg
p1570
aVhttp://images.cars.com/phototab/DMI/205425/2265/15.jpg
p1571
aVhttp://images.cars.com/phototab/DMI/205425/2265/13.jpg
p1572
aVhttp://images.cars.com/phototab/DMI/205425/2265/12.jpg
p1573
aVhttp://images.cars.com/phototab/DMI/205425/2265/10.jpg
p1574
aVhttp://images.cars.com/phototab/DMI/205425/2265/09.jpg
p1575
aVhttp://images.cars.com/phototab/DMI/205425/2265/08.jpg
p1576
aVhttp://images.cars.com/phototab/DMI/205425/2265/06.jpg
p1577
aVhttp://images.cars.com/phototab/DMI/205425/2265/02.jpg
p1578
aVhttp://images.cars.com/phototab/DMI/205425/2265/01.jpg
p1579
aVhttp://images.cars.com/phototab/DMI/211170/P2126J/32.jpg
p1580
aVhttp://images.cars.com/phototab/DMI/211170/P2126J/29.jpg
p1581
aVhttp://images.cars.com/phototab/DMI/211170/P2126J/28.jpg
p1582
aVhttp://images.cars.com/phototab/DMI/211170/P2126J/27.jpg
p1583
aVhttp://images.cars.com/phototab/DMI/211170/P2126J/26.jpg
p1584
aVhttp://images.cars.com/phototab/DMI/211170/P2126J/25.jpg
p1585
aVhttp://images.cars.com/phototab/DMI/211170/P2126J/20.jpg
p1586
aVhttp://images.cars.com/phototab/DMI/211170/P2126J/19.jpg
p1587
aVhttp://images.cars.com/phototab/DMI/211170/P2126J/18.jpg
p1588
aVhttp://images.cars.com/phototab/DMI/211170/P2126J/16.jpg
p1589
aVhttp://images.cars.com/phototab/DMI/211170/P2126J/15.jpg
p1590
aVhttp://images.cars.com/phototab/DMI/205425/2534/11.jpg
p1591
aVhttp://images.cars.com/phototab/DMI/211170/P2126J/12.jpg
p1592
aVhttp://images.cars.com/phototab/DMI/211170/P2126J/09.jpg
p1593
aVhttp://images.cars.com/phototab/DMI/211170/P2126J/05.jpg
p1594
aVhttp://images.cars.com/phototab/DMI/211170/P2126J/04.jpg
p1595
aVhttp://images.cars.com/phototab/DMI/211170/P2126J/02.jpg
p1596
aVhttp://images.cars.com/phototab/DMI/18343/M40888/03.jpg
p1597
aVhttp://images.cars.com/phototab/DMI/209052/EA822807/32.jpg
p1598
aVhttp://images.cars.com/phototab/DMI/209052/EA822807/29.jpg
p1599
aVhttp://images.cars.com/phototab/DMI/7799/REB031518/22.jpg
p1600
aVhttp://images.cars.com/phototab/DMI/211170/FA612747C/01.jpg
p1601
aVhttp://images.cars.com/phototab/DMI/209052/EA822807/27.jpg
p1602
aVhttp://images.cars.com/phototab/DMI/209052/EA822807/25.jpg
p1603
aVhttp://images.cars.com/phototab/DMI/209052/EA822807/23.jpg
p1604
aVhttp://images.cars.com/phototab/DMI/209052/EA822807/22.jpg
p1605
aVhttp://images.cars.com/phototab/DMI/209052/EA822807/19.jpg
p1606
aVhttp://images.cars.com/phototab/DMI/209052/EA822807/18.jpg
p1607
aVhttp://images.cars.com/phototab/DMI/209052/EA822807/17.jpg
p1608
aVhttp://images.cars.com/phototab/DMI/209052/EA822807/16.jpg
p1609
aVhttp://images.cars.com/phototab/DMI/209052/EA822807/14.jpg
p1610
aVhttp://images.cars.com/phototab/DMI/209052/EA822807/12.jpg
p1611
aVhttp://images.cars.com/phototab/DMI/209052/EA822807/11.jpg
p1612
aVhttp://images.cars.com/phototab/DMI/209052/EA822807/08.jpg
p1613
aVhttp://images.cars.com/phototab/DMI/209052/EA822807/07.jpg
p1614
aVhttp://images.cars.com/phototab/DMI/209052/EA822807/06.jpg
p1615
aVhttp://images.cars.com/phototab/DMI/209052/EA822807/05.jpg
p1616
aVhttp://images.cars.com/phototab/DMI/209052/EA822807/03.jpg
p1617
aVhttp://images.cars.com/phototab/DMI/209052/EA822807/02.jpg
p1618
aVhttp://images.cars.com/phototab/DMI/209052/EA822807/01.jpg
p1619
aVhttp://images.cars.com/phototab/DMI/5342460/931372/02.jpg
p1620
aVhttp://images.cars.com/phototab/DMI/209052/EA879693/32.jpg
p1621
aVhttp://images.cars.com/phototab/DMI/209052/EA879693/29.jpg
p1622
aVhttp://images.cars.com/phototab/DMI/209052/EA879693/28.jpg
p1623
aVhttp://images.cars.com/phototab/DMI/209052/EA879693/26.jpg
p1624
aVhttp://images.cars.com/phototab/DMI/205425/2266/25.jpg
p1625
aVhttp://images.cars.com/phototab/DMI/209052/EA879693/24.jpg
p1626
aVhttp://images.cars.com/phototab/DMI/209052/EA879693/23.jpg
p1627
aVhttp://images.cars.com/phototab/DMI/177262/DA715370/05.jpg
p1628
aVhttp://images.cars.com/phototab/DMI/209052/EA879693/21.jpg
p1629
aVhttp://images.cars.com/phototab/DMI/209052/EA879693/20.jpg
p1630
aVhttp://images.cars.com/phototab/DMI/209052/EA879693/18.jpg
p1631
aVhttp://images.cars.com/phototab/DMI/209052/EA879693/17.jpg
p1632
aVhttp://images.cars.com/phototab/DMI/209052/EA879693/16.jpg
p1633
aVhttp://images.cars.com/phototab/DMI/209052/EA879693/15.jpg
p1634
aVhttp://images.cars.com/phototab/DMI/209052/EA879693/13.jpg
p1635
aVhttp://images.cars.com/phototab/DMI/209052/EA879693/11.jpg
p1636
aVhttp://images.cars.com/phototab/DMI/209052/EA879693/09.jpg
p1637
aVhttp://images.cars.com/phototab/DMI/209052/EA879693/08.jpg
p1638
aVhttp://images.cars.com/phototab/DMI/149858/P4549/12.jpg
p1639
aVhttp://images.cars.com/phototab/DMI/209052/EA879693/07.jpg
p1640
aVhttp://images.cars.com/phototab/DMI/209052/EA879693/06.jpg
p1641
aVhttp://images.cars.com/phototab/DMI/209052/EA879693/04.jpg
p1642
aVhttp://images.cars.com/phototab/DMI/209052/EA879693/03.jpg
p1643
aVhttp://images.cars.com/phototab/DMI/209052/EA879693/02.jpg
p1644
aVhttp://images.cars.com/phototab/DMI/209052/EA879693/01.jpg
p1645
aVhttp://images.cars.com/phototab/DMI/15128/MB5059/31.jpg
p1646
aVhttp://images.cars.com/phototab/DMI/152454/685135A1/08.jpg
p1647
aVhttp://images.cars.com/phototab/DMI/15128/MB5059/30.jpg
p1648
aVhttp://images.cars.com/phototab/DMI/15128/MB5059/29.jpg
p1649
aVhttp://images.cars.com/phototab/DMI/15128/MB5059/27.jpg
p1650
aVhttp://images.cars.com/phototab/DMI/15128/MB5059/26.jpg
p1651
aVhttp://images.cars.com/phototab/DMI/15128/MB5059/25.jpg
p1652
aVhttp://images.cars.com/phototab/DMI/15128/MB5059/24.jpg
p1653
aVhttp://images.cars.com/phototab/DMI/15128/MB5059/23.jpg
p1654
aVhttp://images.cars.com/phototab/DMI/15128/MB5059/14.jpg
p1655
aVhttp://images.cars.com/phototab/DMI/15128/MB5059/13.jpg
p1656
aVhttp://images.cars.com/phototab/DMI/15128/MB5059/11.jpg
p1657
aVhttp://images.cars.com/phototab/DMI/15128/MB5059/10.jpg
p1658
aVhttp://images.cars.com/phototab/DMI/15128/MB5059/09.jpg
p1659
aVhttp://images.cars.com/phototab/DMI/15128/MB5059/08.jpg
p1660
aVhttp://images.cars.com/phototab/DMI/15128/MB5059/07.jpg
p1661
aVhttp://images.cars.com/phototab/DMI/15128/MB5059/05.jpg
p1662
aVhttp://images.cars.com/phototab/DMI/15128/MB5059/04.jpg
p1663
aVhttp://images.cars.com/phototab/DMI/15128/MB5059/01.jpg
p1664
aVhttp://images.cars.com/phototab/DMI/5247433/3307/31.jpg
p1665
aVhttp://images.cars.com/phototab/DMI/5247433/3307/29.jpg
p1666
aVhttp://images.cars.com/phototab/DMI/5247433/3307/28.jpg
p1667
aVhttp://images.cars.com/phototab/DMI/5247433/3307/27.jpg
p1668
aVhttp://images.cars.com/phototab/DMI/5247433/3307/26.jpg
p1669
aVhttp://images.cars.com/phototab/DMI/5247433/3307/23.jpg
p1670
aVhttp://images.cars.com/phototab/DMI/5247433/3307/21.jpg
p1671
aVhttp://images.cars.com/phototab/DMI/100231/EA947029/32.jpg
p1672
aVhttp://images.cars.com/phototab/DMI/5247433/3307/20.jpg
p1673
aVhttp://images.cars.com/phototab/DMI/15128/MB5059/12.jpg
p1674
aVhttp://images.cars.com/phototab/DMI/5247433/3307/19.jpg
p1675
aVhttp://images.cars.com/phototab/DMI/5247433/3307/18.jpg
p1676
aVhttp://images.cars.com/phototab/DMI/5247433/3307/17.jpg
p1677
aVhttp://images.cars.com/phototab/DMI/11646/R615/29.jpg
p1678
aVhttp://images.cars.com/phototab/DMI/5247433/3307/15.jpg
p1679
aVhttp://images.cars.com/phototab/DMI/5247433/3307/13.jpg
p1680
aVhttp://images.cars.com/phototab/DMI/5247433/3307/11.jpg
p1681
aVhttp://images.cars.com/phototab/DMI/5247433/3307/07.jpg
p1682
aVhttp://images.cars.com/phototab/DMI/5247433/3307/04.jpg
p1683
aVhttp://images.cars.com/phototab/DMI/5247433/3307/02.jpg
p1684
aVhttp://images.cars.com/phototab/DMI/149270/17606P/32.jpg
p1685
aVhttp://images.cars.com/phototab/DMI/149270/17606P/31.jpg
p1686
aVhttp://images.cars.com/phototab/DMI/149270/17606P/29.jpg
p1687
aVhttp://images.cars.com/phototab/DMI/149270/17606P/27.jpg
p1688
aVhttp://images.cars.com/phototab/DMI/149270/17606P/26.jpg
p1689
aVhttp://images.cars.com/phototab/DMI/149270/17606P/25.jpg
p1690
aVhttp://images.cars.com/phototab/DMI/149270/17606P/23.jpg
p1691
aVhttp://images.cars.com/phototab/DMI/149270/17606P/19.jpg
p1692
aVhttp://images.cars.com/phototab/DMI/149270/17606P/17.jpg
p1693
aVhttp://images.cars.com/phototab/DMI/149270/17606P/16.jpg
p1694
aVhttp://images.cars.com/phototab/DMI/149270/17606P/14.jpg
p1695
aVhttp://images.cars.com/phototab/DMI/149270/17606P/13.jpg
p1696
aVhttp://images.cars.com/phototab/DMI/149270/17606P/09.jpg
p1697
aVhttp://images.cars.com/phototab/DMI/149270/17606P/08.jpg
p1698
aVhttp://images.cars.com/phototab/DMI/149270/17606P/07.jpg
p1699
aVhttp://images.cars.com/phototab/DMI/149270/17606P/06.jpg
p1700
aVhttp://images.cars.com/phototab/DMI/149270/17606P/05.jpg
p1701
aVhttp://images.cars.com/phototab/DMI/149270/17606P/04.jpg
p1702
aVhttp://images.cars.com/phototab/DMI/149270/17606P/02.jpg
p1703
aVhttp://images.cars.com/phototab/DMI/149270/17606P/01.jpg
p1704
aVhttp://images.cars.com/phototab/DMI/205998/U2066/30.jpg
p1705
aVhttp://images.cars.com/phototab/DMI/205998/U2066/28.jpg
p1706
aVhttp://images.cars.com/phototab/DMI/205998/U2066/27.jpg
p1707
aVhttp://images.cars.com/phototab/DMI/205998/U2066/26.jpg
p1708
aVhttp://images.cars.com/phototab/DMI/205998/U2066/25.jpg
p1709
aVhttp://images.cars.com/phototab/DMI/205998/U2066/23.jpg
p1710
aVhttp://images.cars.com/phototab/DMI/205998/U2066/20.jpg
p1711
aVhttp://images.cars.com/phototab/DMI/205998/U2066/18.jpg
p1712
aVhttp://images.cars.com/phototab/DMI/205998/U2066/17.jpg
p1713
aVhttp://images.cars.com/phototab/DMI/205998/U2066/15.jpg
p1714
aVhttp://images.cars.com/phototab/DMI/177262/DA715370/30.jpg
p1715
aVhttp://images.cars.com/phototab/DMI/100231/EA947029/02.jpg
p1716
aVhttp://images.cars.com/phototab/DMI/205998/U2066/14.jpg
p1717
aVhttp://images.cars.com/phototab/DMI/205998/U2066/13.jpg
p1718
aVhttp://images.cars.com/phototab/DMI/205998/U2066/12.jpg
p1719
aVhttp://images.cars.com/phototab/DMI/205998/U2066/11.jpg
p1720
aVhttp://images.cars.com/phototab/DMI/205998/U2066/09.jpg
p1721
aVhttp://images.cars.com/phototab/DMI/205998/U2066/08.jpg
p1722
aVhttp://images.cars.com/phototab/DMI/205998/U2066/06.jpg
p1723
aVhttp://images.cars.com/phototab/DMI/205998/U2066/05.jpg
p1724
aVhttp://images.cars.com/phototab/DMI/205998/U2066/04.jpg
p1725
aVhttp://images.cars.com/phototab/DMI/205998/U2066/03.jpg
p1726
aVhttp://images.cars.com/phototab/DMI/205998/U2066/01.jpg
p1727
aVhttp://images.cars.com/phototab/DMI/24564/44530/32.jpg
p1728
aVhttp://images.cars.com/phototab/DMI/24564/44530/31.jpg
p1729
aVhttp://images.cars.com/phototab/DMI/24564/44530/30.jpg
p1730
aVhttp://images.cars.com/phototab/DMI/158948/C12005/28.jpg
p1731
aVhttp://images.cars.com/phototab/DMI/24564/44530/28.jpg
p1732
aVhttp://images.cars.com/phototab/DMI/24564/44530/26.jpg
p1733
aVhttp://images.cars.com/phototab/DMI/24564/44530/25.jpg
p1734
aVhttp://images.cars.com/phototab/DMI/24564/44530/24.jpg
p1735
aVhttp://images.cars.com/phototab/DMI/205425/2208/16.jpg
p1736
aVhttp://images.cars.com/phototab/DMI/24564/44530/23.jpg
p1737
aVhttp://images.cars.com/phototab/DMI/24564/44530/22.jpg
p1738
aVhttp://images.cars.com/phototab/DMI/177262/DA715370/32.jpg
p1739
aVhttp://images.cars.com/phototab/DMI/24564/44530/21.jpg
p1740
aVhttp://images.cars.com/phototab/DMI/24564/44530/20.jpg
p1741
aVhttp://images.cars.com/phototab/DMI/24564/44530/19.jpg
p1742
aVhttp://images.cars.com/phototab/DMI/24564/44530/18.jpg
p1743
aVhttp://images.cars.com/phototab/DMI/24564/44530/16.jpg
p1744
aVhttp://images.cars.com/phototab/DMI/205998/U2066/10.jpg
p1745
aVhttp://images.cars.com/phototab/DMI/24564/44530/15.jpg
p1746
aVhttp://images.cars.com/phototab/DMI/24564/44530/14.jpg
p1747
aVhttp://images.cars.com/phototab/DMI/24564/44530/12.jpg
p1748
aVhttp://images.cars.com/phototab/DMI/24564/44530/10.jpg
p1749
aVhttp://images.cars.com/phototab/DMI/24564/44530/07.jpg
p1750
aVhttp://images.cars.com/phototab/DMI/24564/44530/06.jpg
p1751
aVhttp://images.cars.com/phototab/DMI/24564/44530/05.jpg
p1752
aVhttp://images.cars.com/phototab/DMI/24564/44530/27.jpg
p1753
aVhttp://images.cars.com/phototab/DMI/24564/44530/03.jpg
p1754
aVhttp://images.cars.com/phototab/DMI/24564/44530/02.jpg
p1755
aVhttp://images.cars.com/phototab/DMI/24564/44530/01.jpg
p1756
aVhttp://images.cars.com/phototab/DMI/15128/MB5330/32.jpg
p1757
aVhttp://images.cars.com/phototab/DMI/15128/MB5330/30.jpg
p1758
aVhttp://images.cars.com/phototab/DMI/15128/MB5330/26.jpg
p1759
aVhttp://images.cars.com/phototab/DMI/15128/MB5330/25.jpg
p1760
aVhttp://images.cars.com/phototab/DMI/15128/MB5330/22.jpg
p1761
aVhttp://images.cars.com/phototab/DMI/5348086/97432/25.jpg
p1762
aVhttp://images.cars.com/phototab/DMI/15128/MB5330/21.jpg
p1763
aVhttp://images.cars.com/phototab/DMI/15128/MB5330/19.jpg
p1764
aVhttp://images.cars.com/phototab/DMI/15128/MB5330/18.jpg
p1765
aVhttp://images.cars.com/phototab/DMI/15128/MB5330/14.jpg
p1766
aVhttp://images.cars.com/phototab/DMI/15128/MB5330/13.jpg
p1767
aVhttp://images.cars.com/phototab/DMI/15128/MB5330/12.jpg
p1768
aVhttp://images.cars.com/phototab/DMI/152454/685135A1/01.jpg
p1769
aVhttp://images.cars.com/phototab/DMI/15128/MB5330/11.jpg
p1770
aVhttp://images.cars.com/phototab/DMI/15128/MB5330/10.jpg
p1771
aVhttp://images.cars.com/phototab/DMI/15128/MB5330/08.jpg
p1772
aVhttp://images.cars.com/phototab/DMI/15128/MB5330/07.jpg
p1773
aVhttp://images.cars.com/phototab/DMI/15128/MB5330/05.jpg
p1774
aVhttp://images.cars.com/phototab/DMI/15128/MB5330/04.jpg
p1775
aVhttp://images.cars.com/phototab/DMI/149270/17606P/21.jpg
p1776
aVhttp://images.cars.com/phototab/DMI/15128/MB5330/03.jpg
p1777
aVhttp://images.cars.com/phototab/DMI/177459/15121/32.jpg
p1778
aVhttp://images.cars.com/phototab/DMI/177459/15121/31.jpg
p1779
aVhttp://images.cars.com/phototab/DMI/177459/15121/29.jpg
p1780
aVhttp://images.cars.com/phototab/DMI/177459/15121/28.jpg
p1781
aVhttp://images.cars.com/phototab/DMI/177459/15121/26.jpg
p1782
aVhttp://images.cars.com/phototab/DMI/177459/15121/25.jpg
p1783
aVhttp://images.cars.com/phototab/DMI/177459/15121/24.jpg
p1784
aVhttp://images.cars.com/phototab/DMI/177459/15121/23.jpg
p1785
aVhttp://images.cars.com/phototab/DMI/177459/15121/21.jpg
p1786
aVhttp://images.cars.com/phototab/DMI/177459/15121/20.jpg
p1787
aVhttp://images.cars.com/phototab/DMI/209052/EA879693/27.jpg
p1788
aVhttp://images.cars.com/phototab/DMI/177459/15121/18.jpg
p1789
aVhttp://images.cars.com/phototab/DMI/177459/15121/16.jpg
p1790
aVhttp://images.cars.com/phototab/DMI/189397/PM6220/06.jpg
p1791
aVhttp://images.cars.com/phototab/DMI/177459/15121/14.jpg
p1792
aVhttp://images.cars.com/phototab/DMI/177459/15121/12.jpg
p1793
aVhttp://images.cars.com/phototab/DMI/177459/15121/11.jpg
p1794
aVhttp://images.cars.com/phototab/DMI/177459/15121/10.jpg
p1795
aVhttp://images.cars.com/phototab/DMI/177459/15121/09.jpg
p1796
aVhttp://images.cars.com/phototab/DMI/177459/15121/08.jpg
p1797
aVhttp://images.cars.com/phototab/DMI/177459/15121/07.jpg
p1798
aVhttp://images.cars.com/phototab/DMI/177459/15121/06.jpg
p1799
aVhttp://images.cars.com/phototab/DMI/177459/15121/05.jpg
p1800
aVhttp://images.cars.com/phototab/DMI/177459/15121/03.jpg
p1801
aVhttp://images.cars.com/phototab/DMI/177459/15121/02.jpg
p1802
aVhttp://images.cars.com/phototab/DMI/209052/EA822807/26.jpg
p1803
aVhttp://images.cars.com/phototab/DMI/15128/MB5363/32.jpg
p1804
aVhttp://images.cars.com/phototab/DMI/15128/MB5363/31.jpg
p1805
aVhttp://images.cars.com/phototab/DMI/15128/MB5363/29.jpg
p1806
aVhttp://images.cars.com/phototab/DMI/15128/MB5363/27.jpg
p1807
aVhttp://images.cars.com/phototab/DMI/15128/MB5363/26.jpg
p1808
aVhttp://images.cars.com/phototab/DMI/209052/EA822807/21.jpg
p1809
aVhttp://images.cars.com/phototab/DMI/15128/MB5363/25.jpg
p1810
aVhttp://images.cars.com/phototab/DMI/15128/MB5363/24.jpg
p1811
aVhttp://images.cars.com/phototab/DMI/15128/MB5363/23.jpg
p1812
aVhttp://images.cars.com/phototab/DMI/15128/MB5363/22.jpg
p1813
aVhttp://images.cars.com/phototab/DMI/15128/MB5363/21.jpg
p1814
aVhttp://images.cars.com/phototab/DMI/15128/MB5363/20.jpg
p1815
aVhttp://images.cars.com/phototab/DMI/15128/MB5363/19.jpg
p1816
aVhttp://images.cars.com/phototab/DMI/15128/MB5363/18.jpg
p1817
aVhttp://images.cars.com/phototab/DMI/15128/MB5363/17.jpg
p1818
aVhttp://images.cars.com/phototab/DMI/15128/MB5363/15.jpg
p1819
aVhttp://images.cars.com/phototab/DMI/15128/MB5363/12.jpg
p1820
aVhttp://images.cars.com/phototab/DMI/158948/C12005/22.jpg
p1821
aVhttp://images.cars.com/phototab/DMI/15128/MB5363/11.jpg
p1822
aVhttp://images.cars.com/phototab/DMI/15128/MB5363/10.jpg
p1823
aVhttp://images.cars.com/phototab/DMI/15128/MB5363/09.jpg
p1824
aVhttp://images.cars.com/phototab/DMI/15128/MB5363/08.jpg
p1825
aVhttp://images.cars.com/phototab/DMI/15128/MB5363/05.jpg
p1826
aVhttp://images.cars.com/phototab/DMI/18343/M40888/24.jpg
p1827
aVhttp://images.cars.com/phototab/DMI/189397/PM6220/23.jpg
p1828
aVhttp://images.cars.com/phototab/DMI/15128/MB5363/04.jpg
p1829
aVhttp://images.cars.com/phototab/DMI/15128/MB5363/03.jpg
p1830
aVhttp://images.cars.com/phototab/DMI/90080/EA843761L/22.jpg
p1831
aVhttp://images.cars.com/phototab/DMI/15128/MB5363/02.jpg
p1832
aVhttp://images.cars.com/phototab/DMI/103897/B214445/31.jpg
p1833
aVhttp://images.cars.com/phototab/DMI/103897/B214445/28.jpg
p1834
aVhttp://images.cars.com/phototab/DMI/103897/B214445/27.jpg
p1835
aVhttp://images.cars.com/phototab/DMI/205998/U2066/32.jpg
p1836
aVhttp://images.cars.com/phototab/DMI/103897/B214445/26.jpg
p1837
aVhttp://images.cars.com/phototab/DMI/103897/B214445/23.jpg
p1838
aVhttp://images.cars.com/phototab/DMI/5350625/1651/28.jpg
p1839
aVhttp://images.cars.com/phototab/DMI/103897/B214445/22.jpg
p1840
aVhttp://images.cars.com/phototab/DMI/90080/EA843761L/11.jpg
p1841
aVhttp://images.cars.com/phototab/DMI/103897/B214445/18.jpg
p1842
aVhttp://images.cars.com/phototab/DMI/103897/B214445/15.jpg
p1843
aVhttp://images.cars.com/phototab/DMI/103897/B214445/14.jpg
p1844
aVhttp://images.cars.com/phototab/DMI/103897/B214445/13.jpg
p1845
aVhttp://images.cars.com/phototab/DMI/103897/B214445/12.jpg
p1846
aVhttp://images.cars.com/phototab/DMI/158948/C12005/06.jpg
p1847
aVhttp://images.cars.com/phototab/DMI/103897/B214445/11.jpg
p1848
aVhttp://images.cars.com/phototab/DMI/103897/B214445/09.jpg
p1849
aVhttp://images.cars.com/phototab/DMI/103897/B214445/07.jpg
p1850
aVhttp://images.cars.com/phototab/DMI/103897/B214445/05.jpg
p1851
aVhttp://images.cars.com/phototab/DMI/103897/B214445/02.jpg
p1852
aVhttp://images.cars.com/phototab/DMI/103897/B214445/01.jpg
p1853
aVhttp://images.cars.com/phototab/DMI/209052/EA924497/32.jpg
p1854
aVhttp://images.cars.com/phototab/DMI/211170/FA612747C/08.jpg
p1855
aVhttp://images.cars.com/phototab/DMI/158948/C12005/31.jpg
p1856
aVhttp://images.cars.com/phototab/DMI/5342460/931372/16.jpg
p1857
aVhttp://images.cars.com/phototab/DMI/209052/EA924497/31.jpg
p1858
aVhttp://images.cars.com/phototab/DMI/209052/EA924497/29.jpg
p1859
aVhttp://images.cars.com/phototab/DMI/209052/EA924497/28.jpg
p1860
aVhttp://images.cars.com/phototab/DMI/209052/EA924497/24.jpg
p1861
aVhttp://images.cars.com/phototab/DMI/209052/EA924497/23.jpg
p1862
aVhttp://images.cars.com/phototab/DMI/209052/EA924497/22.jpg
p1863
aVhttp://images.cars.com/phototab/DMI/209052/EA924497/21.jpg
p1864
aVhttp://images.cars.com/phototab/DMI/209052/EA924497/18.jpg
p1865
aVhttp://images.cars.com/phototab/DMI/209052/EA924497/17.jpg
p1866
aVhttp://images.cars.com/phototab/DMI/209052/EA924497/15.jpg
p1867
aVhttp://images.cars.com/phototab/DMI/209052/EA822807/15.jpg
p1868
aVhttp://images.cars.com/phototab/DMI/209052/EA924497/13.jpg
p1869
aVhttp://images.cars.com/phototab/DMI/209052/EA924497/12.jpg
p1870
aVhttp://images.cars.com/phototab/DMI/209052/EA924497/11.jpg
p1871
aVhttp://images.cars.com/phototab/DMI/209052/EA924497/10.jpg
p1872
aVhttp://images.cars.com/phototab/DMI/209052/EA924497/09.jpg
p1873
aVhttp://images.cars.com/phototab/DMI/209052/EA924497/08.jpg
p1874
aVhttp://images.cars.com/phototab/DMI/209052/EA924497/07.jpg
p1875
aVhttp://images.cars.com/phototab/DMI/11646/R615/25.jpg
p1876
aVhttp://images.cars.com/phototab/DMI/5691/23974/32.jpg
p1877
aVhttp://images.cars.com/phototab/DMI/209052/EA924497/06.jpg
p1878
aVhttp://images.cars.com/phototab/DMI/2617/17972/08.jpg
p1879
aVhttp://images.cars.com/phototab/DMI/104530/M-4-333/32.jpg
p1880
aVhttp://images.cars.com/phototab/DMI/209052/EA977424/31.jpg
p1881
aVhttp://images.cars.com/phototab/DMI/211269/PU2677/03.jpg
p1882
aVhttp://images.cars.com/phototab/DMI/209052/EA977424/23.jpg
p1883
aVhttp://images.cars.com/phototab/DMI/209052/EA977424/20.jpg
p1884
aVhttp://images.cars.com/phototab/DMI/100273/946085/29.jpg
p1885
aVhttp://images.cars.com/phototab/DMI/100231/EA947029/21.jpg
p1886
aVhttp://images.cars.com/phototab/DMI/205425/2208/11.jpg
p1887
aVhttp://images.cars.com/phototab/DMI/209052/EA977424/19.jpg
p1888
aVhttp://images.cars.com/phototab/DMI/211170/FA612747C/05.jpg
p1889
aVhttp://images.cars.com/phototab/DMI/189397/PM6220/09.jpg
p1890
aVhttp://images.cars.com/phototab/DMI/87862/DA711640/28.jpg
p1891
aVhttp://images.cars.com/phototab/DMI/209052/EA977424/18.jpg
p1892
aVhttp://images.cars.com/phototab/DMI/38/M9263/14.jpg
p1893
aVhttp://images.cars.com/phototab/DMI/209052/EA977424/17.jpg
p1894
aVhttp://images.cars.com/phototab/DMI/5350625/1651/24.jpg
p1895
aVhttp://images.cars.com/phototab/DMI/110229/G141259/22.jpg
p1896
aVhttp://images.cars.com/phototab/DMI/209052/EA977424/14.jpg
p1897
aVhttp://images.cars.com/phototab/DMI/209052/EA977424/13.jpg
p1898
aVhttp://images.cars.com/phototab/DMI/15364/E3752/08.jpg
p1899
aVhttp://images.cars.com/phototab/DMI/5691/24197/14.jpg
p1900
aVhttp://images.cars.com/phototab/DMI/209052/EA977424/09.jpg
p1901
aVhttp://images.cars.com/phototab/DMI/209052/EA977424/03.jpg
p1902
aVhttp://images.cars.com/phototab/DMI/209052/EA977424/02.jpg
p1903
aVhttp://images.cars.com/phototab/DMI/209052/EA977424/01.jpg
p1904
aVhttp://images.cars.com/phototab/DMI/158948/C12005/24.jpg
p1905
aVhttp://images.cars.com/phototab/DMI/193176/EA856103/14.jpg
p1906
aVhttp://images.cars.com/phototab/DMI/203903/B019908/32.jpg
p1907
aVhttp://images.cars.com/phototab/DMI/203903/B019908/31.jpg
p1908
aVhttp://images.cars.com/phototab/DMI/203903/B019908/30.jpg
p1909
aVhttp://images.cars.com/phototab/DMI/203903/B019908/23.jpg
p1910
aVhttp://images.cars.com/phototab/DMI/203903/B019908/16.jpg
p1911
aVhttp://images.cars.com/phototab/DMI/23056/P947605/12.jpg
p1912
aVhttp://images.cars.com/phototab/DMI/203903/B019908/11.jpg
p1913
aVhttp://images.cars.com/phototab/DMI/203903/B019908/09.jpg
p1914
aVhttp://images.cars.com/phototab/DMI/203903/B019908/08.jpg
p1915
aVhttp://images.cars.com/phototab/DMI/203903/B019908/07.jpg
p1916
aVhttp://images.cars.com/phototab/DMI/203903/B019908/06.jpg
p1917
aVhttp://images.cars.com/phototab/DMI/203903/B019908/05.jpg
p1918
aVhttp://images.cars.com/phototab/DMI/103897/B22562/11.jpg
p1919
aVhttp://images.cars.com/phototab/DMI/11752/EA824261/31.jpg
p1920
aVhttp://images.cars.com/phototab/DMI/11752/EA824261/29.jpg
p1921
aVhttp://images.cars.com/phototab/DMI/11752/EA824261/26.jpg
p1922
aVhttp://images.cars.com/phototab/DMI/11752/EA824261/25.jpg
p1923
aVhttp://images.cars.com/phototab/DMI/11752/EA824261/24.jpg
p1924
aVhttp://images.cars.com/phototab/DMI/11752/EA824261/22.jpg
p1925
aVhttp://images.cars.com/phototab/DMI/11752/EA824261/21.jpg
p1926
aVhttp://images.cars.com/phototab/DMI/209052/EA977424/27.jpg
p1927
aVhttp://images.cars.com/phototab/DMI/178562/5574505/10.jpg
p1928
aVhttp://images.cars.com/phototab/DMI/11752/EA824261/17.jpg
p1929
aVhttp://images.cars.com/phototab/DMI/107272/HV9416/19.jpg
p1930
aVhttp://images.cars.com/phototab/DMI/11752/EA824261/08.jpg
p1931
aVhttp://images.cars.com/phototab/DMI/11752/EA824261/03.jpg
p1932
aVhttp://images.cars.com/phototab/DMI/87862/DA711640/23.jpg
p1933
aVhttp://images.cars.com/phototab/DMI/205998/U2066/02.jpg
p1934
aVhttp://images.cars.com/phototab/DMI/107272/HE9333/18.jpg
p1935
aVhttp://images.cars.com/phototab/DMI/87862/DA711640/22.jpg
p1936
aVhttp://images.cars.com/phototab/DMI/87862/DA711640/20.jpg
p1937
aVhttp://images.cars.com/phototab/DMI/11752/EA824261/04.jpg
p1938
aVhttp://images.cars.com/phototab/DMI/24564/43992/14.jpg
p1939
aVhttp://images.cars.com/phototab/DMI/87862/DA711640/18.jpg
p1940
aVhttp://images.cars.com/phototab/DMI/3359/M8290/16.jpg
p1941
aVhttp://images.cars.com/phototab/DMI/87862/DA711640/15.jpg
p1942
aVhttp://images.cars.com/phototab/DMI/87862/DA711640/14.jpg
p1943
aVhttp://images.cars.com/phototab/DMI/152130/PC4866/14.jpg
p1944
aVhttp://images.cars.com/phototab/DMI/87862/DA711640/13.jpg
p1945
aVhttp://images.cars.com/phototab/DMI/87862/DA711640/09.jpg
p1946
aVhttp://images.cars.com/phototab/DMI/155187/MLR3492/05.jpg
p1947
aVhttp://images.cars.com/phototab/DMI/87862/DA711640/07.jpg
p1948
aVhttp://images.cars.com/phototab/DMI/211269/PU2677/15.jpg
p1949
aVhttp://images.cars.com/phototab/DMI/107272/HV9416/07.jpg
p1950
aVhttp://images.cars.com/phototab/DMI/211269/M7348/24.jpg
p1951
aVhttp://images.cars.com/phototab/DMI/87862/DA711640/04.jpg
p1952
aVhttp://images.cars.com/phototab/DMI/211269/PU2677/08.jpg
p1953
aVhttp://images.cars.com/phototab/DMI/110229/G141259/31.jpg
p1954
aVhttp://images.cars.com/phototab/DMI/100231/EA947029/13.jpg
p1955
aVhttp://images.cars.com/phototab/DMI/107272/HV9361/22.jpg
p1956
aVhttp://images.cars.com/phototab/DMI/209052/EA977424/07.jpg
p1957
aVhttp://images.cars.com/phototab/DMI/110229/G141259/26.jpg
p1958
aVhttp://images.cars.com/phototab/DMI/110229/G141259/25.jpg
p1959
aVhttp://images.cars.com/phototab/DMI/158948/C12005/25.jpg
p1960
aVhttp://images.cars.com/phototab/DMI/110229/G141259/24.jpg
p1961
aVhttp://images.cars.com/phototab/DMI/110229/G141259/23.jpg
p1962
aVhttp://images.cars.com/phototab/DMI/110229/G141259/20.jpg
p1963
aVhttp://images.cars.com/phototab/DMI/147205/DA674702/08.jpg
p1964
aVhttp://images.cars.com/phototab/DMI/90080/EB073461/27.jpg
p1965
aVhttp://images.cars.com/phototab/DMI/209052/EA977424/25.jpg
p1966
aVhttp://images.cars.com/phototab/DMI/177262/DA715370/31.jpg
p1967
aVhttp://images.cars.com/phototab/DMI/96523/901713/25.jpg
p1968
aVhttp://images.cars.com/phototab/DMI/110229/G141259/16.jpg
p1969
aVhttp://images.cars.com/phototab/DMI/209052/EA924497/27.jpg
p1970
aVhttp://images.cars.com/phototab/DMI/110229/G141259/14.jpg
p1971
aVhttp://images.cars.com/phototab/DMI/110229/G141259/13.jpg
p1972
aVhttp://images.cars.com/phototab/DMI/7799/REB031518/08.jpg
p1973
aVhttp://images.cars.com/phototab/DMI/149270/17606P/15.jpg
p1974
aVhttp://images.cars.com/phototab/DMI/110229/G141259/12.jpg
p1975
aVhttp://images.cars.com/phototab/DMI/205425/2534/26.jpg
p1976
aVhttp://images.cars.com/phototab/DMI/186851/REA937301/11.jpg
p1977
aVhttp://images.cars.com/phototab/DMI/110229/G141259/10.jpg
p1978
aVhttp://images.cars.com/phototab/DMI/110229/G141259/09.jpg
p1979
aVhttp://images.cars.com/phototab/DMI/147205/DA674702/22.jpg
p1980
aVhttp://images.cars.com/phototab/DMI/110229/G141259/08.jpg
p1981
aVhttp://images.cars.com/phototab/DMI/110229/G141259/32.jpg
p1982
aVhttp://images.cars.com/phototab/DMI/166476/L2891P/10.jpg
p1983
aVhttp://images.cars.com/phototab/DMI/110229/G141259/05.jpg
p1984
aVhttp://images.cars.com/phototab/DMI/110229/G141259/01.jpg
p1985
aVhttp://images.cars.com/phototab/DMI/186851/REA937301/31.jpg
p1986
aVhttp://images.cars.com/phototab/DMI/186851/REA937301/30.jpg
p1987
aVhttp://images.cars.com/phototab/DMI/107272/HV9361/20.jpg
p1988
aVhttp://images.cars.com/phototab/DMI/87862/DA711640/01.jpg
p1989
aVhttp://images.cars.com/phototab/DMI/186851/REA937301/29.jpg
p1990
aVhttp://images.cars.com/phototab/DMI/186851/REA937301/28.jpg
p1991
aVhttp://images.cars.com/phototab/DMI/186851/REA937301/27.jpg
p1992
aVhttp://images.cars.com/phototab/DMI/186851/REA937301/26.jpg
p1993
aVhttp://images.cars.com/phototab/DMI/89223/PMC211217/30.jpg
p1994
aVhttp://images.cars.com/phototab/DMI/186851/REA937301/22.jpg
p1995
aVhttp://images.cars.com/phototab/DMI/189397/PM6220/13.jpg
p1996
aVhttp://images.cars.com/phototab/DMI/186851/REA937301/18.jpg
p1997
aVhttp://images.cars.com/phototab/DMI/90080/EA908794P/29.jpg
p1998
aVhttp://images.cars.com/phototab/DMI/186851/REA937301/16.jpg
p1999
aVhttp://images.cars.com/phototab/DMI/186851/REA937301/13.jpg
p2000
aVhttp://images.cars.com/phototab/DMI/186851/REA937301/12.jpg
p2001
aVhttp://images.cars.com/phototab/DMI/5691/24195/05.jpg
p2002
aVhttp://images.cars.com/phototab/DMI/186851/REA937301/10.jpg
p2003
aVhttp://images.cars.com/phototab/DMI/186851/REA937301/06.jpg
p2004
aVhttp://images.cars.com/phototab/DMI/155187/MSD3351/02.jpg
p2005
aVhttp://images.cars.com/phototab/DMI/186851/REA937301/05.jpg
p2006
aVhttp://images.cars.com/phototab/DMI/209052/EA977424/11.jpg
p2007
aVhttp://images.cars.com/phototab/DMI/211269/M7348/30.jpg
p2008
aVhttp://images.cars.com/phototab/DMI/103897/B22562/29.jpg
p2009
aVhttp://images.cars.com/phototab/DMI/5348033/UM1250/02.jpg
p2010
aVhttp://images.cars.com/phototab/DMI/103897/B22562/25.jpg
p2011
aVhttp://images.cars.com/phototab/DMI/172355/EA810734LP/16.jpg
p2012
aVhttp://images.cars.com/phototab/DMI/152130/PC4866/21.jpg
p2013
aVhttp://images.cars.com/phototab/MDC/45/423445/1784847991.jpg
p2014
aVhttp://images.cars.com/phototab/DMI/103897/B22562/24.jpg
p2015
aVhttp://images.cars.com/phototab/DMI/152454/685135A1/25.jpg
p2016
aVhttp://images.cars.com/phototab/DMI/103897/B22320/27.jpg
p2017
aVhttp://images.cars.com/phototab/DMI/11752/EA824261/07.jpg
p2018
aVhttp://images.cars.com/phototab/DMI/5691/24195/06.jpg
p2019
aVhttp://images.cars.com/phototab/DMI/103897/B22562/20.jpg
p2020
aVhttp://images.cars.com/phototab/DMI/103897/B22562/17.jpg
p2021
aVhttp://images.cars.com/phototab/DMI/189397/PM6220/03.jpg
p2022
aVhttp://images.cars.com/phototab/DMI/103897/B22562/15.jpg
p2023
aVhttp://images.cars.com/phototab/DMI/7724/P5886A/28.jpg
p2024
aVhttp://images.cars.com/phototab/DMI/103897/B22562/14.jpg
p2025
aVhttp://images.cars.com/phototab/DMI/2617/17972/01.jpg
p2026
aVhttp://images.cars.com/phototab/DMI/103897/B22562/09.jpg
p2027
aVhttp://images.cars.com/phototab/DMI/24564/44530/04.jpg
p2028
aVhttp://images.cars.com/phototab/DMI/103897/B22562/05.jpg
p2029
aVhttp://images.cars.com/phototab/DMI/172355/EA810734LP/08.jpg
p2030
aVhttp://images.cars.com/phototab/DMI/110229/G141259/11.jpg
p2031
aVhttp://images.cars.com/phototab/DMI/103897/B22562/03.jpg
p2032
aVhttp://images.cars.com/phototab/DMI/148765/MB6730/32.jpg
p2033
aVhttp://images.cars.com/phototab/DMI/198605/MP033362/04.jpg
p2034
aVhttp://images.cars.com/phototab/DMI/148765/MB6730/30.jpg
p2035
aVhttp://images.cars.com/phototab/DMI/148765/MB6730/24.jpg
p2036
aVhttp://images.cars.com/phototab/DMI/209052/EA924497/05.jpg
p2037
aVhttp://images.cars.com/phototab/DMI/148765/MB6730/14.jpg
p2038
aVhttp://images.cars.com/phototab/DMI/148765/MB6730/12.jpg
p2039
aVhttp://images.cars.com/phototab/DMI/3359/M8290/23.jpg
p2040
aVhttp://images.cars.com/phototab/DMI/90080/EB073461/23.jpg
p2041
aVhttp://images.cars.com/phototab/DMI/203903/B019908/25.jpg
p2042
aVhttp://images.cars.com/phototab/DMI/196224/14196/02.jpg
p2043
aVhttp://images.cars.com/phototab/DMI/148765/MB6730/09.jpg
p2044
aVhttp://images.cars.com/phototab/DMI/155187/MSL3432/29.jpg
p2045
aVhttp://images.cars.com/phototab/DMI/148765/MB6730/07.jpg
p2046
aVhttp://images.cars.com/phototab/DMI/148765/MB6730/06.jpg
p2047
aVhttp://images.cars.com/phototab/DMI/89223/PMC211185/28.jpg
p2048
aVhttp://images.cars.com/phototab/DMI/148765/MB6730/05.jpg
p2049
aVhttp://images.cars.com/phototab/DMI/148765/MB6730/02.jpg
p2050
aVhttp://images.cars.com/phototab/DMI/203903/A985897/32.jpg
p2051
aVhttp://images.cars.com/phototab/DMI/5327561/M4001/07.jpg
p2052
aVhttp://images.cars.com/phototab/DMI/203903/A985897/31.jpg
p2053
aVhttp://images.cars.com/phototab/DMI/203903/A985897/29.jpg
p2054
aVhttp://images.cars.com/phototab/DMI/155205/M4550/06.jpg
p2055
aVhttp://images.cars.com/phototab/DMI/203903/A985897/26.jpg
p2056
aVhttp://images.cars.com/phototab/DMI/152130/PC4866/23.jpg
p2057
aVhttp://images.cars.com/phototab/DMI/203903/A985897/24.jpg
p2058
aVhttp://images.cars.com/phototab/DMI/203903/A985897/23.jpg
p2059
aVhttp://images.cars.com/phototab/DMI/205425/2534/05.jpg
p2060
aVhttp://images.cars.com/phototab/DMI/203903/A985897/16.jpg
p2061
aVhttp://images.cars.com/phototab/DMI/203903/A985897/15.jpg
p2062
aVhttp://images.cars.com/phototab/DMI/203903/A985897/14.jpg
p2063
aVhttp://images.cars.com/phototab/DMI/186220/8741P/23.jpg
p2064
aVhttp://images.cars.com/phototab/DMI/203903/A985897/12.jpg
p2065
aVhttp://images.cars.com/phototab/DMI/155187/MLR3492/17.jpg
p2066
aVhttp://images.cars.com/phototab/DMI/203903/A985897/09.jpg
p2067
aVhttp://images.cars.com/phototab/DMI/203903/A985897/08.jpg
p2068
aVhttp://images.cars.com/phototab/DMI/11646/R615/23.jpg
p2069
aVhttp://images.cars.com/phototab/DMI/24564/43992/32.jpg
p2070
aVhttp://images.cars.com/phototab/DMI/24564/43992/31.jpg
p2071
aVhttp://images.cars.com/phototab/DMI/5243772/V5631R/01.jpg
p2072
aVhttp://images.cars.com/phototab/DMI/24564/43992/29.jpg
p2073
aVhttp://images.cars.com/phototab/DMI/24564/43992/27.jpg
p2074
aVhttp://images.cars.com/phototab/DMI/166124/PF10657/07.jpg
p2075
aVhttp://images.cars.com/phototab/DMI/24564/43992/24.jpg
p2076
aVhttp://images.cars.com/phototab/DMI/157508/MS11529A/19.jpg
p2077
aVhttp://images.cars.com/phototab/DMI/2348/A15584/07.jpg
p2078
aVhttp://images.cars.com/phototab/DMI/24564/43992/18.jpg
p2079
aVhttp://images.cars.com/phototab/DMI/24564/43992/17.jpg
p2080
aVhttp://images.cars.com/phototab/DMI/103897/B214445/32.jpg
p2081
aVhttp://images.cars.com/phototab/DMI/90080/EA908794P/31.jpg
p2082
aVhttp://images.cars.com/phototab/DMI/38/M9263/32.jpg
p2083
aVhttp://images.cars.com/phototab/DMI/24564/43992/13.jpg
p2084
aVhttp://images.cars.com/phototab/DMI/24564/43992/11.jpg
p2085
aVhttp://images.cars.com/phototab/DMI/108566/10375/29.jpg
p2086
aVhttp://images.cars.com/phototab/DMI/24564/43992/09.jpg
p2087
aVhttp://images.cars.com/phototab/DMI/209052/EA879693/14.jpg
p2088
aVhttp://images.cars.com/phototab/DMI/24564/43992/08.jpg
p2089
aVhttp://images.cars.com/phototab/DMI/177262/DA715370/23.jpg
p2090
aVhttp://images.cars.com/phototab/DMI/24564/43992/05.jpg
p2091
aVhttp://images.cars.com/phototab/DMI/203903/A985897/21.jpg
p2092
aVhttp://images.cars.com/phototab/DMI/148765/MB6730/03.jpg
p2093
aVhttp://images.cars.com/phototab/DMI/107272/HV9416/18.jpg
p2094
aVhttp://images.cars.com/phototab/DMI/24564/43992/25.jpg
p2095
aVhttp://images.cars.com/phototab/DMI/24564/43992/02.jpg
p2096
aVhttp://images.cars.com/phototab/DMI/90080/EA908794P/30.jpg
p2097
aVhttp://images.cars.com/phototab/DMI/27306/PB049002/13.jpg
p2098
aVhttp://images.cars.com/phototab/DMI/90080/EA908794P/28.jpg
p2099
aVhttp://images.cars.com/phototab/DMI/197355/P22769/04.jpg
p2100
aVhttp://images.cars.com/phototab/DMI/90080/EA908794P/24.jpg
p2101
aVhttp://images.cars.com/phototab/DMI/5244425/F1576/11.jpg
p2102
aVhttp://images.cars.com/phototab/DMI/90080/EA908794P/22.jpg
p2103
aVhttp://images.cars.com/phototab/DMI/5342460/931372/31.jpg
p2104
aVhttp://images.cars.com/phototab/DMI/90080/EA908794P/19.jpg
p2105
aVhttp://images.cars.com/phototab/DMI/155205/M4562/09.jpg
p2106
aVhttp://images.cars.com/phototab/DMI/90080/EA908794P/18.jpg
p2107
aVhttp://images.cars.com/phototab/DMI/205425/2265/21.jpg
p2108
aVhttp://images.cars.com/phototab/DMI/205998/U2066/31.jpg
p2109
aVhttp://images.cars.com/phototab/DMI/90080/EA908794P/17.jpg
p2110
aVhttp://images.cars.com/phototab/DMI/90080/EA908794P/14.jpg
p2111
aVhttp://images.cars.com/phototab/DMI/209052/EA822807/24.jpg
p2112
aVhttp://images.cars.com/phototab/DMI/163978/19834/22.jpg
p2113
aVhttp://images.cars.com/phototab/DMI/90080/EA908794P/11.jpg
p2114
aVhttp://images.cars.com/phototab/DMI/90080/EA908794P/09.jpg
p2115
aVhttp://images.cars.com/phototab/DMI/103897/B214445/08.jpg
p2116
aVhttp://images.cars.com/phototab/DMI/152130/PC4866/32.jpg
p2117
aVhttp://images.cars.com/phototab/DMI/90080/EA908794P/07.jpg
p2118
aVhttp://images.cars.com/phototab/DMI/90080/EA908794P/06.jpg
p2119
aVhttp://images.cars.com/phototab/DMI/24564/44812/12.jpg
p2120
aVhttp://images.cars.com/phototab/DMI/186851/REA937301/09.jpg
p2121
aVhttp://images.cars.com/phototab/DMI/7799/REB031518/16.jpg
p2122
aVhttp://images.cars.com/phototab/DMI/211170/FA612747C/32.jpg
p2123
aVhttp://images.cars.com/phototab/DMI/5350625/1651/11.jpg
p2124
aVhttp://images.cars.com/phototab/DMI/7724/P5967/24.jpg
p2125
aVhttp://images.cars.com/phototab/DMI/90080/EA908794P/05.jpg
p2126
aVhttp://images.cars.com/phototab/DMI/211269/PU2677/01.jpg
p2127
aVhttp://images.cars.com/phototab/DMI/90080/EA908794P/03.jpg
p2128
aVhttp://images.cars.com/phototab/DMI/155205/M4562/15.jpg
p2129
aVhttp://images.cars.com/phototab/DMI/155205/M4587/02.jpg
p2130
aVhttp://images.cars.com/phototab/DMI/5243772/V6202R/12.jpg
p2131
aVhttp://images.cars.com/phototab/DMI/87862/DA711640/27.jpg
p2132
aVhttp://images.cars.com/phototab/DMI/166124/PF10657/32.jpg
p2133
aVhttp://images.cars.com/phototab/DMI/90080/EA908794P/01.jpg
p2134
aVhttp://images.cars.com/phototab/DMI/104530/M-4-2194/32.jpg
p2135
aVhttp://images.cars.com/phototab/DMI/205425/2266/14.jpg
p2136
aVhttp://images.cars.com/phototab/DMI/104530/M-4-2194/31.jpg
p2137
aVhttp://images.cars.com/phototab/DMI/104530/M-4-2194/30.jpg
p2138
aVhttp://images.cars.com/phototab/DMI/15128/MB5059/20.jpg
p2139
aVhttp://images.cars.com/phototab/DMI/169095/A894582A/22.jpg
p2140
aVhttp://images.cars.com/phototab/DMI/104530/M-4-2194/29.jpg
p2141
aVhttp://images.cars.com/phototab/DMI/211266/G0017A/22.jpg
p2142
aVhttp://images.cars.com/phototab/DMI/104530/M-4-2194/28.jpg
p2143
aVhttp://images.cars.com/phototab/DMI/104530/M-4-333/10.jpg
p2144
aVhttp://images.cars.com/phototab/DMI/104530/M-4-2194/25.jpg
p2145
aVhttp://images.cars.com/phototab/DMI/87862/DA711640/08.jpg
p2146
aVhttp://images.cars.com/phototab/DMI/104530/M-4-2194/24.jpg
p2147
aVhttp://images.cars.com/phototab/DMI/104530/M-4-2194/23.jpg
p2148
aVhttp://images.cars.com/phototab/DMI/15128/MB5059/21.jpg
p2149
aVhttp://images.cars.com/phototab/DMI/104530/M-4-2194/21.jpg
p2150
aVhttp://images.cars.com/phototab/DMI/155187/MSL3432/30.jpg
p2151
aVhttp://images.cars.com/phototab/DMI/104530/M-4-2194/18.jpg
p2152
aVhttp://images.cars.com/phototab/DMI/104530/M-4-2194/14.jpg
p2153
aVhttp://images.cars.com/phototab/DMI/104530/M-4-2194/12.jpg
p2154
aVhttp://images.cars.com/phototab/DMI/104530/M-4-2194/09.jpg
p2155
aVhttp://images.cars.com/phototab/DMI/5691/24125/03.jpg
p2156
aVhttp://images.cars.com/phototab/DMI/104530/M-4-2194/08.jpg
p2157
aVhttp://images.cars.com/phototab/DMI/104530/M-4-2194/06.jpg
p2158
aVhttp://images.cars.com/phototab/DMI/96523/901713/32.jpg
p2159
aVhttp://images.cars.com/phototab/DMI/149858/P4549/15.jpg
p2160
aVhttp://images.cars.com/phototab/DMI/163978/19834/30.jpg
p2161
aVhttp://images.cars.com/phototab/DMI/96523/901713/30.jpg
p2162
aVhttp://images.cars.com/phototab/DMI/197133/EA843149/20.jpg
p2163
aVhttp://images.cars.com/phototab/DMI/96523/901713/20.jpg
p2164
aVhttp://images.cars.com/phototab/DMI/110229/G141259/27.jpg
p2165
aVhttp://images.cars.com/phototab/DMI/197355/P22769/01.jpg
p2166
aVhttp://images.cars.com/phototab/DMI/96523/901713/19.jpg
p2167
aVhttp://images.cars.com/phototab/DMI/18343/M40888/23.jpg
p2168
aVhttp://images.cars.com/phototab/DMI/211170/P2126J/11.jpg
p2169
as.