(lp0
Vhttp://www.zeroto60times.com/vehicle-make/acura-0-60-mph-times/
p1
aVhttp://www.zeroto60times.com/vehicle-make/alfa-romeo-0-60-mph-times/
p2
aVhttp://www.zeroto60times.com/vehicle-make/amc-0-60-mph-times/
p3
aVhttp://www.zeroto60times.com/vehicle-make/ariel-atom-0-60-mph-times/
p4
aVhttp://www.zeroto60times.com/vehicle-make/aston-martin-0-60-mph-times/
p5
aVhttp://www.zeroto60times.com/vehicle-make/audi-0-60-mph-times/
p6
aVhttp://www.zeroto60times.com/vehicle-make/austin-healey-0-60-mph-times/
p7
aVhttp://www.zeroto60times.com/vehicle-make/bentley-0-60-mph-times/
p8
aVhttp://www.zeroto60times.com/vehicle-make/bmw-0-60-mph-times/
p9
aVhttp://www.zeroto60times.com/vehicle-make/bugatti-0-60-mph-times/
p10
aVhttp://www.zeroto60times.com/vehicle-make/buick-0-60-mph-times/
p11
aVhttp://www.zeroto60times.com/vehicle-make/cadillac-0-60-mph-times/
p12
aVhttp://www.zeroto60times.com/vehicle-make/callaway-0-60-mph-times/
p13
aVhttp://www.zeroto60times.com/vehicle-make/caterham-0-60-mph-times/
p14
aVhttp://www.zeroto60times.com/vehicle-make/chevrolet-0-60-mph-times/
p15
aVhttp://www.zeroto60times.com/vehicle-make/chrysler-0-60-mph-times/
p16
aVhttp://www.zeroto60times.com/vehicle-make/citroen-0-60-mph-times/
p17
aVhttp://www.zeroto60times.com/vehicle-make/dacia-0-60-mph-times/
p18
aVhttp://www.zeroto60times.com/vehicle-make/daewoo-0-60-mph-times/
p19
aVhttp://www.zeroto60times.com/vehicle-make/daihatsu-0-60-mph-times/
p20
aVhttp://www.zeroto60times.com/vehicle-make/datsun-0-60-mph-times/
p21
aVhttp://www.zeroto60times.com/vehicle-make/de-tomaso-0-60-mph-times/
p22
aVhttp://www.zeroto60times.com/vehicle-make/dodge-0-60-mph-times/
p23
aVhttp://www.zeroto60times.com/vehicle-make/eagle-0-60-mph-times/
p24
aVhttp://www.zeroto60times.com/vehicle-make/ferrari-0-60-mph-times/
p25
aVhttp://www.zeroto60times.com/vehicle-make/fiat-0-60-mph-times/
p26
aVhttp://www.zeroto60times.com/vehicle-make/fisker-0-60-mph-times/
p27
aVhttp://www.zeroto60times.com/vehicle-make/ford-0-60-mph-times/
p28
aVhttp://www.zeroto60times.com/vehicle-make/geo-0-60-mph-times/
p29
aVhttp://www.zeroto60times.com/vehicle-make/gmc-0-60-mph-times/
p30
aVhttp://www.zeroto60times.com/vehicle-make/hennessey-0-60-mph-times/
p31
aVhttp://www.zeroto60times.com/vehicle-make/holden-0-60-mph-times/
p32
aVhttp://www.zeroto60times.com/vehicle-make/honda-0-60-mph-times/
p33
aVhttp://www.zeroto60times.com/vehicle-make/hummer-0-60-mph-times/
p34
aVhttp://www.zeroto60times.com/vehicle-make/hyundai-0-60-mph-times/
p35
aVhttp://www.zeroto60times.com/vehicle-make/infiniti-0-60-mph-times/
p36
aVhttp://www.zeroto60times.com/vehicle-make/isuzu-0-60-mph-times/
p37
aVhttp://www.zeroto60times.com/vehicle-make/jaguar-0-60-mph-times/
p38
aVhttp://www.zeroto60times.com/vehicle-make/jeep-0-60-mph-times/
p39
aVhttp://www.zeroto60times.com/vehicle-make/kia-0-60-mph-times/
p40
aVhttp://www.zeroto60times.com/vehicle-make/koenigsegg-0-60-mph-times/
p41
aVhttp://www.zeroto60times.com/vehicle-make/lamborghini-0-60-mph-times/
p42
aVhttp://www.zeroto60times.com/vehicle-make/lancia-0-60-mph-times/
p43
aVhttp://www.zeroto60times.com/vehicle-make/land-rover-0-60-mph-times/
p44
aVhttp://www.zeroto60times.com/vehicle-make/lexus-0-60-mph-times/
p45
aVhttp://www.zeroto60times.com/vehicle-make/lincoln-0-60-mph-times/
p46
aVhttp://www.zeroto60times.com/vehicle-make/lotus-0-60-mph-times/
p47
aVhttp://www.zeroto60times.com/vehicle-make/maserati-0-60-mph-times/
p48
aVhttp://www.zeroto60times.com/vehicle-make/maybach-0-60-mph-times/
p49
aVhttp://www.zeroto60times.com/vehicle-make/mazda-0-60-mph-times/
p50
aVhttp://www.zeroto60times.com/vehicle-make/mclaren-0-60-mph-times/
p51
aVhttp://www.zeroto60times.com/vehicle-make/mercedes-0-60-mph-times/
p52
aVhttp://www.zeroto60times.com/vehicle-make/mercury-0-60-mph-times/
p53
aVhttp://www.zeroto60times.com/vehicle-make/mg-0-60-mph-times/
p54
aVhttp://www.zeroto60times.com/vehicle-make/mini-0-60-mph-times/
p55
aVhttp://www.zeroto60times.com/vehicle-make/mitsubishi-0-60-mph-times/
p56
aVhttp://www.zeroto60times.com/vehicle-make/morgan-0-60-mph-times/
p57
aVhttp://www.zeroto60times.com/vehicle-make/mosler-rossion/
p58
aVhttp://www.zeroto60times.com/vehicle-make/nissan-0-60-mph-times/
p59
aVhttp://www.zeroto60times.com/vehicle-make/noble-0-60-mph-times/
p60
aVhttp://www.zeroto60times.com/vehicle-make/oldsmobile-0-60-mph-times/
p61
aVhttp://www.zeroto60times.com/vehicle-make/opel-0-60-mph-times/
p62
aVhttp://www.zeroto60times.com/vehicle-make/pagani-0-60-mph-times/
p63
aVhttp://www.zeroto60times.com/vehicle-make/peugeot-0-60-mph-times/
p64
aVhttp://www.zeroto60times.com/vehicle-make/plymouth-0-60-mph-times/
p65
aVhttp://www.zeroto60times.com/vehicle-make/pontiac-0-60-mph-times/
p66
aVhttp://www.zeroto60times.com/vehicle-make/porsche-0-60-mph-times/
p67
aVhttp://www.zeroto60times.com/vehicle-make/proton-0-60-mph-times/
p68
aVhttp://www.zeroto60times.com/vehicle-make/ram-0-60-mph-times/
p69
aVhttp://www.zeroto60times.com/vehicle-make/renault-0-60-mph-times/
p70
aVhttp://www.zeroto60times.com/vehicle-make/rolls-royce-0-60-mph-times/
p71
aVhttp://www.zeroto60times.com/vehicle-make/mosler-rossion/
p72
aVhttp://www.zeroto60times.com/vehicle-make/saab-0-60-mph-times/
p73
aVhttp://www.zeroto60times.com/vehicle-make/saleen-0-60-mph-times/
p74
aVhttp://www.zeroto60times.com/vehicle-make/saturn-0-60-mph-times/
p75
aVhttp://www.zeroto60times.com/vehicle-make/scion-0-60-mph-times/
p76
aVhttp://www.zeroto60times.com/vehicle-make/seat-0-60-mph-times/
p77
aVhttp://www.zeroto60times.com/vehicle-make/shelby-0-60-mph-times/
p78
aVhttp://www.zeroto60times.com/vehicle-make/skoda-0-60-mph-times/
p79
aVhttp://www.zeroto60times.com/vehicle-make/smart-0-60-mph-times/
p80
aVhttp://www.zeroto60times.com/vehicle-make/ssangyong-0-60-mph-times/
p81
aVhttp://www.zeroto60times.com/vehicle-make/subaru-0-60-mph-times/
p82
aVhttp://www.zeroto60times.com/vehicle-make/superformance-0-60-mph-times/
p83
aVhttp://www.zeroto60times.com/vehicle-make/suzuki-0-60-mph-times/
p84
aVhttp://www.zeroto60times.com/vehicle-make/tesla-0-60-mph-times/
p85
aVhttp://www.zeroto60times.com/vehicle-make/toyota-0-60-mph-times/
p86
aVhttp://www.zeroto60times.com/vehicle-make/triumph-0-60-mph-times/
p87
aVhttp://www.zeroto60times.com/vehicle-make/vauxhall-0-60-mph-times/
p88
aVhttp://www.zeroto60times.com/vehicle-make/volkswagen-0-60-mph-times/
p89
aVhttp://www.zeroto60times.com/vehicle-make/volvo-0-60-mph-times/
p90
aVhttp://www.zeroto60times.com/vehicle-make/westfield-0-60-mph-times/
p91
a.